
blink.elf:     file format elf32-littlearm


Disassembly of section .text:

00000000 <table_interrupt_vector>:
       0:	00 80 00 20 4d 04 00 00 dd 04 00 00 dd 04 00 00     ... M...........
	...
      2c:	f7 46 00 00 00 00 00 00 00 00 00 00 7d 47 00 00     .F..........}G..
      3c:	c5 47 00 00 dd 04 00 00 dd 04 00 00 dd 04 00 00     .G..............
      4c:	dd 04 00 00 dd 04 00 00 dd 04 00 00 79 10 00 00     ............y...
      5c:	09 0a 00 00 dd 04 00 00 dd 04 00 00 dd 04 00 00     ................
      6c:	dd 04 00 00 dd 04 00 00 dd 04 00 00 41 02 00 00     ............A...
      7c:	65 02 00 00 dd 04 00 00 dd 04 00 00 29 25 00 00     e...........)%..
      8c:	dd 04 00 00 dd 04 00 00 dd 04 00 00 dd 04 00 00     ................
      9c:	dd 04 00 00 dd 04 00 00 00 00 00 00 00 00 00 00     ................
      ac:	dd 04 00 00 b9 02 00 00 dd 04 00 00 dd 04 00 00     ................
      bc:	dd 04 00 00                                         ....

000000c0 <__NVIC_DisableIRQ>:
      c0:	b580      	push	{r7, lr}
      c2:	b082      	sub	sp, #8
      c4:	af00      	add	r7, sp, #0
      c6:	0002      	movs	r2, r0
      c8:	1dfb      	adds	r3, r7, #7
      ca:	701a      	strb	r2, [r3, #0]
      cc:	1dfb      	adds	r3, r7, #7
      ce:	781b      	ldrb	r3, [r3, #0]
      d0:	2b7f      	cmp	r3, #127	; 0x7f
      d2:	d80e      	bhi.n	f2 <__NVIC_DisableIRQ+0x32>
      d4:	4909      	ldr	r1, [pc, #36]	; (fc <__NVIC_DisableIRQ+0x3c>)
      d6:	1dfb      	adds	r3, r7, #7
      d8:	781b      	ldrb	r3, [r3, #0]
      da:	001a      	movs	r2, r3
      dc:	231f      	movs	r3, #31
      de:	4013      	ands	r3, r2
      e0:	2201      	movs	r2, #1
      e2:	409a      	lsls	r2, r3
      e4:	0013      	movs	r3, r2
      e6:	2280      	movs	r2, #128	; 0x80
      e8:	508b      	str	r3, [r1, r2]
      ea:	f3bf 8f4f 	dsb	sy
      ee:	f3bf 8f6f 	isb	sy
      f2:	46c0      	nop			; (mov r8, r8)
      f4:	46bd      	mov	sp, r7
      f6:	b002      	add	sp, #8
      f8:	bd80      	pop	{r7, pc}
      fa:	46c0      	nop			; (mov r8, r8)
      fc:	e000e100 	.word	0xe000e100

00000100 <__NVIC_ClearPendingIRQ>:
     100:	b580      	push	{r7, lr}
     102:	b082      	sub	sp, #8
     104:	af00      	add	r7, sp, #0
     106:	0002      	movs	r2, r0
     108:	1dfb      	adds	r3, r7, #7
     10a:	701a      	strb	r2, [r3, #0]
     10c:	1dfb      	adds	r3, r7, #7
     10e:	781b      	ldrb	r3, [r3, #0]
     110:	2b7f      	cmp	r3, #127	; 0x7f
     112:	d80a      	bhi.n	12a <__NVIC_ClearPendingIRQ+0x2a>
     114:	4907      	ldr	r1, [pc, #28]	; (134 <__NVIC_ClearPendingIRQ+0x34>)
     116:	1dfb      	adds	r3, r7, #7
     118:	781b      	ldrb	r3, [r3, #0]
     11a:	001a      	movs	r2, r3
     11c:	231f      	movs	r3, #31
     11e:	4013      	ands	r3, r2
     120:	2201      	movs	r2, #1
     122:	409a      	lsls	r2, r3
     124:	23c0      	movs	r3, #192	; 0xc0
     126:	005b      	lsls	r3, r3, #1
     128:	50ca      	str	r2, [r1, r3]
     12a:	46c0      	nop			; (mov r8, r8)
     12c:	46bd      	mov	sp, r7
     12e:	b002      	add	sp, #8
     130:	bd80      	pop	{r7, pc}
     132:	46c0      	nop			; (mov r8, r8)
     134:	e000e100 	.word	0xe000e100

00000138 <dut_reset_off>:
     138:	b580      	push	{r7, lr}
     13a:	af00      	add	r7, sp, #0
     13c:	4b03      	ldr	r3, [pc, #12]	; (14c <dut_reset_off+0x14>)
     13e:	2280      	movs	r2, #128	; 0x80
     140:	0112      	lsls	r2, r2, #4
     142:	625a      	str	r2, [r3, #36]	; 0x24
     144:	46c0      	nop			; (mov r8, r8)
     146:	46bd      	mov	sp, r7
     148:	bd80      	pop	{r7, pc}
     14a:	46c0      	nop			; (mov r8, r8)
     14c:	400b0000 	.word	0x400b0000

00000150 <dut_reset_on>:
     150:	b580      	push	{r7, lr}
     152:	af00      	add	r7, sp, #0
     154:	4b03      	ldr	r3, [pc, #12]	; (164 <dut_reset_on+0x14>)
     156:	2280      	movs	r2, #128	; 0x80
     158:	0112      	lsls	r2, r2, #4
     15a:	621a      	str	r2, [r3, #32]
     15c:	46c0      	nop			; (mov r8, r8)
     15e:	46bd      	mov	sp, r7
     160:	bd80      	pop	{r7, pc}
     162:	46c0      	nop			; (mov r8, r8)
     164:	400b0000 	.word	0x400b0000

00000168 <dut_set_speed>:
     168:	b580      	push	{r7, lr}
     16a:	b082      	sub	sp, #8
     16c:	af00      	add	r7, sp, #0
     16e:	6078      	str	r0, [r7, #4]
     170:	687b      	ldr	r3, [r7, #4]
     172:	121b      	asrs	r3, r3, #8
     174:	001a      	movs	r2, r3
     176:	4b03      	ldr	r3, [pc, #12]	; (184 <dut_set_speed+0x1c>)
     178:	601a      	str	r2, [r3, #0]
     17a:	46c0      	nop			; (mov r8, r8)
     17c:	46bd      	mov	sp, r7
     17e:	b002      	add	sp, #8
     180:	bd80      	pop	{r7, pc}
     182:	46c0      	nop			; (mov r8, r8)
     184:	2000089c 	.word	0x2000089c

00000188 <dut_set_torque>:
     188:	b580      	push	{r7, lr}
     18a:	b082      	sub	sp, #8
     18c:	af00      	add	r7, sp, #0
     18e:	6078      	str	r0, [r7, #4]
     190:	4b03      	ldr	r3, [pc, #12]	; (1a0 <dut_set_torque+0x18>)
     192:	687a      	ldr	r2, [r7, #4]
     194:	601a      	str	r2, [r3, #0]
     196:	46c0      	nop			; (mov r8, r8)
     198:	46bd      	mov	sp, r7
     19a:	b002      	add	sp, #8
     19c:	bd80      	pop	{r7, pc}
     19e:	46c0      	nop			; (mov r8, r8)
     1a0:	200008a0 	.word	0x200008a0

000001a4 <main>:
     1a4:	b580      	push	{r7, lr}
     1a6:	af00      	add	r7, sp, #0
     1a8:	f001 fe1a 	bl	1de0 <SystemInit>
     1ac:	f000 f9d4 	bl	558 <mdb485_init>
     1b0:	f000 fdee 	bl	d90 <mdb232_init>
     1b4:	f001 fe48 	bl	1e48 <RemoteMacInit>
     1b8:	f001 fef6 	bl	1fa8 <EthernetConfig>
     1bc:	f7ff ffbc 	bl	138 <dut_reset_off>
     1c0:	4b15      	ldr	r3, [pc, #84]	; (218 <__UVISION_VERSION+0xf>)
     1c2:	0018      	movs	r0, r3
     1c4:	f006 f90c 	bl	63e0 <osMutexCreate>
     1c8:	0002      	movs	r2, r0
     1ca:	4b14      	ldr	r3, [pc, #80]	; (21c <__UVISION_VERSION+0x13>)
     1cc:	601a      	str	r2, [r3, #0]
     1ce:	f005 fb07 	bl	57e0 <osKernelInitialize>
     1d2:	4b13      	ldr	r3, [pc, #76]	; (220 <__GCC_VERSION+0x3>)
     1d4:	2100      	movs	r1, #0
     1d6:	0018      	movs	r0, r3
     1d8:	f006 fbe4 	bl	69a4 <osMessageCreate>
     1dc:	0002      	movs	r2, r0
     1de:	4b11      	ldr	r3, [pc, #68]	; (224 <__GCC_VERSION+0x7>)
     1e0:	601a      	str	r2, [r3, #0]
     1e2:	4b11      	ldr	r3, [pc, #68]	; (228 <__GCC_VERSION+0xb>)
     1e4:	2100      	movs	r1, #0
     1e6:	0018      	movs	r0, r3
     1e8:	f005 fc8c 	bl	5b04 <osThreadCreate>
     1ec:	0002      	movs	r2, r0
     1ee:	4b0f      	ldr	r3, [pc, #60]	; (22c <__GCC_VERSION+0xf>)
     1f0:	601a      	str	r2, [r3, #0]
     1f2:	4b0f      	ldr	r3, [pc, #60]	; (230 <__GCC_VERSION+0x13>)
     1f4:	2100      	movs	r1, #0
     1f6:	0018      	movs	r0, r3
     1f8:	f005 fc84 	bl	5b04 <osThreadCreate>
     1fc:	0002      	movs	r2, r0
     1fe:	4b0d      	ldr	r3, [pc, #52]	; (234 <__GCC_VERSION+0x17>)
     200:	601a      	str	r2, [r3, #0]
     202:	4b0d      	ldr	r3, [pc, #52]	; (238 <__GCC_VERSION+0x1b>)
     204:	2100      	movs	r1, #0
     206:	0018      	movs	r0, r3
     208:	f005 fc7c 	bl	5b04 <osThreadCreate>
     20c:	0002      	movs	r2, r0
     20e:	4b0b      	ldr	r3, [pc, #44]	; (23c <__GCC_VERSION+0x1f>)
     210:	601a      	str	r2, [r3, #0]
     212:	f005 fb81 	bl	5918 <osKernelStart>
     216:	e7fe      	b.n	216 <__UVISION_VERSION+0xd>
     218:	00008570 	.word	0x00008570
     21c:	20000888 	.word	0x20000888
     220:	00008568 	.word	0x00008568
     224:	20000864 	.word	0x20000864
     228:	00008538 	.word	0x00008538
     22c:	20000858 	.word	0x20000858
     230:	00008548 	.word	0x00008548
     234:	2000085c 	.word	0x2000085c
     238:	00008558 	.word	0x00008558
     23c:	20000860 	.word	0x20000860

00000240 <TIMER1_Handler>:
     240:	b580      	push	{r7, lr}
     242:	af00      	add	r7, sp, #0
     244:	4b05      	ldr	r3, [pc, #20]	; (25c <TIMER1_Handler+0x1c>)
     246:	2200      	movs	r2, #0
     248:	655a      	str	r2, [r3, #84]	; 0x54
     24a:	4b05      	ldr	r3, [pc, #20]	; (260 <TIMER1_Handler+0x20>)
     24c:	681b      	ldr	r3, [r3, #0]
     24e:	2101      	movs	r1, #1
     250:	0018      	movs	r0, r3
     252:	f006 f809 	bl	6268 <osSignalSet>
     256:	46c0      	nop			; (mov r8, r8)
     258:	46bd      	mov	sp, r7
     25a:	bd80      	pop	{r7, pc}
     25c:	40070000 	.word	0x40070000
     260:	20000860 	.word	0x20000860

00000264 <TIMER2_Handler>:
     264:	b580      	push	{r7, lr}
     266:	af00      	add	r7, sp, #0
     268:	4b0e      	ldr	r3, [pc, #56]	; (2a4 <TIMER2_Handler+0x40>)
     26a:	2200      	movs	r2, #0
     26c:	655a      	str	r2, [r3, #84]	; 0x54
     26e:	4b0e      	ldr	r3, [pc, #56]	; (2a8 <TIMER2_Handler+0x44>)
     270:	681a      	ldr	r2, [r3, #0]
     272:	4b0e      	ldr	r3, [pc, #56]	; (2ac <TIMER2_Handler+0x48>)
     274:	681b      	ldr	r3, [r3, #0]
     276:	18d3      	adds	r3, r2, r3
     278:	041b      	lsls	r3, r3, #16
     27a:	0c1a      	lsrs	r2, r3, #16
     27c:	4b0a      	ldr	r3, [pc, #40]	; (2a8 <TIMER2_Handler+0x44>)
     27e:	601a      	str	r2, [r3, #0]
     280:	4b09      	ldr	r3, [pc, #36]	; (2a8 <TIMER2_Handler+0x44>)
     282:	681b      	ldr	r3, [r3, #0]
     284:	4a0a      	ldr	r2, [pc, #40]	; (2b0 <TIMER2_Handler+0x4c>)
     286:	4293      	cmp	r3, r2
     288:	d904      	bls.n	294 <TIMER2_Handler+0x30>
     28a:	4b0a      	ldr	r3, [pc, #40]	; (2b4 <TIMER2_Handler+0x50>)
     28c:	2280      	movs	r2, #128	; 0x80
     28e:	0152      	lsls	r2, r2, #5
     290:	621a      	str	r2, [r3, #32]
     292:	e003      	b.n	29c <TIMER2_Handler+0x38>
     294:	4b07      	ldr	r3, [pc, #28]	; (2b4 <TIMER2_Handler+0x50>)
     296:	2280      	movs	r2, #128	; 0x80
     298:	0152      	lsls	r2, r2, #5
     29a:	625a      	str	r2, [r3, #36]	; 0x24
     29c:	46c0      	nop			; (mov r8, r8)
     29e:	46bd      	mov	sp, r7
     2a0:	bd80      	pop	{r7, pc}
     2a2:	46c0      	nop			; (mov r8, r8)
     2a4:	40078000 	.word	0x40078000
     2a8:	200008a4 	.word	0x200008a4
     2ac:	2000089c 	.word	0x2000089c
     2b0:	00007530 	.word	0x00007530
     2b4:	400b0000 	.word	0x400b0000

000002b8 <EXT_INT1_Handler>:
     2b8:	b580      	push	{r7, lr}
     2ba:	af00      	add	r7, sp, #0
     2bc:	201c      	movs	r0, #28
     2be:	f7ff ff1f 	bl	100 <__NVIC_ClearPendingIRQ>
     2c2:	201c      	movs	r0, #28
     2c4:	f7ff fefc 	bl	c0 <__NVIC_DisableIRQ>
     2c8:	4b03      	ldr	r3, [pc, #12]	; (2d8 <EXT_INT1_Handler+0x20>)
     2ca:	681b      	ldr	r3, [r3, #0]
     2cc:	1c5a      	adds	r2, r3, #1
     2ce:	4b02      	ldr	r3, [pc, #8]	; (2d8 <EXT_INT1_Handler+0x20>)
     2d0:	601a      	str	r2, [r3, #0]
     2d2:	46c0      	nop			; (mov r8, r8)
     2d4:	46bd      	mov	sp, r7
     2d6:	bd80      	pop	{r7, pc}
     2d8:	200008a8 	.word	0x200008a8

000002dc <threadDUTProceed>:
     2dc:	b580      	push	{r7, lr}
     2de:	b092      	sub	sp, #72	; 0x48
     2e0:	af00      	add	r7, sp, #0
     2e2:	6078      	str	r0, [r7, #4]
     2e4:	2300      	movs	r3, #0
     2e6:	647b      	str	r3, [r7, #68]	; 0x44
     2e8:	2318      	movs	r3, #24
     2ea:	18fb      	adds	r3, r7, r3
     2ec:	2200      	movs	r2, #0
     2ee:	601a      	str	r2, [r3, #0]
     2f0:	2318      	movs	r3, #24
     2f2:	18fb      	adds	r3, r7, r3
     2f4:	2200      	movs	r2, #0
     2f6:	605a      	str	r2, [r3, #4]
     2f8:	2318      	movs	r3, #24
     2fa:	18fb      	adds	r3, r7, r3
     2fc:	2200      	movs	r2, #0
     2fe:	609a      	str	r2, [r3, #8]
     300:	2318      	movs	r3, #24
     302:	18fb      	adds	r3, r7, r3
     304:	2200      	movs	r2, #0
     306:	60da      	str	r2, [r3, #12]
     308:	2318      	movs	r3, #24
     30a:	18fb      	adds	r3, r7, r3
     30c:	2200      	movs	r2, #0
     30e:	611a      	str	r2, [r3, #16]
     310:	2318      	movs	r3, #24
     312:	18fb      	adds	r3, r7, r3
     314:	2200      	movs	r2, #0
     316:	615a      	str	r2, [r3, #20]
     318:	2318      	movs	r3, #24
     31a:	18fb      	adds	r3, r7, r3
     31c:	2200      	movs	r2, #0
     31e:	619a      	str	r2, [r3, #24]
     320:	2318      	movs	r3, #24
     322:	18fb      	adds	r3, r7, r3
     324:	2200      	movs	r2, #0
     326:	61da      	str	r2, [r3, #28]
     328:	230c      	movs	r3, #12
     32a:	18f8      	adds	r0, r7, r3
     32c:	2301      	movs	r3, #1
     32e:	425b      	negs	r3, r3
     330:	001a      	movs	r2, r3
     332:	2100      	movs	r1, #0
     334:	f005 ffc6 	bl	62c4 <osSignalWait>
     338:	230c      	movs	r3, #12
     33a:	18fb      	adds	r3, r7, r3
     33c:	681b      	ldr	r3, [r3, #0]
     33e:	2b08      	cmp	r3, #8
     340:	d1f2      	bne.n	328 <threadDUTProceed+0x4c>
     342:	230c      	movs	r3, #12
     344:	18fb      	adds	r3, r7, r3
     346:	685b      	ldr	r3, [r3, #4]
     348:	2b02      	cmp	r3, #2
     34a:	d02a      	beq.n	3a2 <threadDUTProceed+0xc6>
     34c:	2b08      	cmp	r3, #8
     34e:	d034      	beq.n	3ba <threadDUTProceed+0xde>
     350:	2b01      	cmp	r3, #1
     352:	d156      	bne.n	402 <_stack_size+0x2>
     354:	6c7b      	ldr	r3, [r7, #68]	; 0x44
     356:	2b01      	cmp	r3, #1
     358:	d916      	bls.n	388 <threadDUTProceed+0xac>
     35a:	4b2a      	ldr	r3, [pc, #168]	; (404 <_stack_size+0x4>)
     35c:	681a      	ldr	r2, [r3, #0]
     35e:	2318      	movs	r3, #24
     360:	18fb      	adds	r3, r7, r3
     362:	605a      	str	r2, [r3, #4]
     364:	f003 fe72 	bl	404c <fsm_get_cyccnt>
     368:	0002      	movs	r2, r0
     36a:	2318      	movs	r3, #24
     36c:	18fb      	adds	r3, r7, r3
     36e:	619a      	str	r2, [r3, #24]
     370:	2318      	movs	r3, #24
     372:	18fb      	adds	r3, r7, r3
     374:	2120      	movs	r1, #32
     376:	0018      	movs	r0, r3
     378:	f003 f8b6 	bl	34e8 <mdb_fifo_write>
     37c:	2318      	movs	r3, #24
     37e:	18fb      	adds	r3, r7, r3
     380:	2200      	movs	r2, #0
     382:	61da      	str	r2, [r3, #28]
     384:	2300      	movs	r3, #0
     386:	647b      	str	r3, [r7, #68]	; 0x44
     388:	2301      	movs	r3, #1
     38a:	647b      	str	r3, [r7, #68]	; 0x44
     38c:	2204      	movs	r2, #4
     38e:	2100      	movs	r1, #0
     390:	2001      	movs	r0, #1
     392:	f000 fd57 	bl	e44 <mdb232_read_inputregs>
     396:	2202      	movs	r2, #2
     398:	2100      	movs	r1, #0
     39a:	2010      	movs	r0, #16
     39c:	f000 fa64 	bl	868 <mdb485_read_inputregs>
     3a0:	e02f      	b.n	402 <_stack_size+0x2>
     3a2:	6c7b      	ldr	r3, [r7, #68]	; 0x44
     3a4:	2202      	movs	r2, #2
     3a6:	4313      	orrs	r3, r2
     3a8:	647b      	str	r3, [r7, #68]	; 0x44
     3aa:	f000 fe0f 	bl	fcc <mdb232_bikm_get_torque>
     3ae:	0003      	movs	r3, r0
     3b0:	001a      	movs	r2, r3
     3b2:	2318      	movs	r3, #24
     3b4:	18fb      	adds	r3, r7, r3
     3b6:	605a      	str	r2, [r3, #4]
     3b8:	e023      	b.n	402 <_stack_size+0x2>
     3ba:	6c7b      	ldr	r3, [r7, #68]	; 0x44
     3bc:	2204      	movs	r2, #4
     3be:	4313      	orrs	r3, r2
     3c0:	647b      	str	r3, [r7, #68]	; 0x44
     3c2:	f000 fac7 	bl	954 <mdb485_get_crc>
     3c6:	1e03      	subs	r3, r0, #0
     3c8:	d11a      	bne.n	400 <_stack_size>
     3ca:	f000 faaf 	bl	92c <mdb485_get_func>
     3ce:	0003      	movs	r3, r0
     3d0:	643b      	str	r3, [r7, #64]	; 0x40
     3d2:	6c3b      	ldr	r3, [r7, #64]	; 0x40
     3d4:	2b04      	cmp	r3, #4
     3d6:	d113      	bne.n	400 <_stack_size>
     3d8:	f000 fada 	bl	990 <mdb485_si30_get_counter>
     3dc:	0003      	movs	r3, r0
     3de:	63fb      	str	r3, [r7, #60]	; 0x3c
     3e0:	2318      	movs	r3, #24
     3e2:	18fb      	adds	r3, r7, r3
     3e4:	6bfa      	ldr	r2, [r7, #60]	; 0x3c
     3e6:	601a      	str	r2, [r3, #0]
     3e8:	6bfb      	ldr	r3, [r7, #60]	; 0x3c
     3ea:	021b      	lsls	r3, r3, #8
     3ec:	2204      	movs	r2, #4
     3ee:	4313      	orrs	r3, r2
     3f0:	63bb      	str	r3, [r7, #56]	; 0x38
     3f2:	4b05      	ldr	r3, [pc, #20]	; (408 <_stack_size+0x8>)
     3f4:	681b      	ldr	r3, [r3, #0]
     3f6:	6bb9      	ldr	r1, [r7, #56]	; 0x38
     3f8:	2200      	movs	r2, #0
     3fa:	0018      	movs	r0, r3
     3fc:	f006 fafe 	bl	69fc <osMessagePut>
     400:	46c0      	nop			; (mov r8, r8)
     402:	e791      	b.n	328 <threadDUTProceed+0x4c>
     404:	200008a0 	.word	0x200008a0
     408:	20000864 	.word	0x20000864

0000040c <threadFSMProceed>:
     40c:	b580      	push	{r7, lr}
     40e:	b086      	sub	sp, #24
     410:	af00      	add	r7, sp, #0
     412:	6078      	str	r0, [r7, #4]
     414:	4b0b      	ldr	r3, [pc, #44]	; (444 <threadFSMProceed+0x38>)
     416:	6819      	ldr	r1, [r3, #0]
     418:	2308      	movs	r3, #8
     41a:	18f8      	adds	r0, r7, r3
     41c:	2301      	movs	r3, #1
     41e:	425b      	negs	r3, r3
     420:	001a      	movs	r2, r3
     422:	f006 fb0f 	bl	6a44 <osMessageGet>
     426:	2308      	movs	r3, #8
     428:	18fb      	adds	r3, r7, r3
     42a:	681b      	ldr	r3, [r3, #0]
     42c:	2b10      	cmp	r3, #16
     42e:	d1f1      	bne.n	414 <threadFSMProceed+0x8>
     430:	2308      	movs	r3, #8
     432:	18fb      	adds	r3, r7, r3
     434:	685b      	ldr	r3, [r3, #4]
     436:	617b      	str	r3, [r7, #20]
     438:	4b03      	ldr	r3, [pc, #12]	; (448 <threadFSMProceed+0x3c>)
     43a:	681b      	ldr	r3, [r3, #0]
     43c:	697a      	ldr	r2, [r7, #20]
     43e:	0010      	movs	r0, r2
     440:	4798      	blx	r3
     442:	e7e7      	b.n	414 <threadFSMProceed+0x8>
     444:	20000864 	.word	0x20000864
     448:	20000010 	.word	0x20000010

0000044c <handler_reset>:
     44c:	b580      	push	{r7, lr}
     44e:	b082      	sub	sp, #8
     450:	af00      	add	r7, sp, #0
     452:	4b1a      	ldr	r3, [pc, #104]	; (4bc <handler_reset+0x70>)
     454:	607b      	str	r3, [r7, #4]
     456:	4b1a      	ldr	r3, [pc, #104]	; (4c0 <handler_reset+0x74>)
     458:	603b      	str	r3, [r7, #0]
     45a:	e007      	b.n	46c <handler_reset+0x20>
     45c:	683b      	ldr	r3, [r7, #0]
     45e:	1d1a      	adds	r2, r3, #4
     460:	603a      	str	r2, [r7, #0]
     462:	687a      	ldr	r2, [r7, #4]
     464:	1d11      	adds	r1, r2, #4
     466:	6079      	str	r1, [r7, #4]
     468:	6812      	ldr	r2, [r2, #0]
     46a:	601a      	str	r2, [r3, #0]
     46c:	683a      	ldr	r2, [r7, #0]
     46e:	4b15      	ldr	r3, [pc, #84]	; (4c4 <handler_reset+0x78>)
     470:	429a      	cmp	r2, r3
     472:	d3f3      	bcc.n	45c <handler_reset+0x10>
     474:	4b14      	ldr	r3, [pc, #80]	; (4c8 <handler_reset+0x7c>)
     476:	607b      	str	r3, [r7, #4]
     478:	4b14      	ldr	r3, [pc, #80]	; (4cc <handler_reset+0x80>)
     47a:	603b      	str	r3, [r7, #0]
     47c:	e007      	b.n	48e <handler_reset+0x42>
     47e:	683b      	ldr	r3, [r7, #0]
     480:	1d1a      	adds	r2, r3, #4
     482:	603a      	str	r2, [r7, #0]
     484:	687a      	ldr	r2, [r7, #4]
     486:	1d11      	adds	r1, r2, #4
     488:	6079      	str	r1, [r7, #4]
     48a:	6812      	ldr	r2, [r2, #0]
     48c:	601a      	str	r2, [r3, #0]
     48e:	683a      	ldr	r2, [r7, #0]
     490:	4b0f      	ldr	r3, [pc, #60]	; (4d0 <handler_reset+0x84>)
     492:	429a      	cmp	r2, r3
     494:	d3f3      	bcc.n	47e <handler_reset+0x32>
     496:	4b0f      	ldr	r3, [pc, #60]	; (4d4 <handler_reset+0x88>)
     498:	603b      	str	r3, [r7, #0]
     49a:	e004      	b.n	4a6 <handler_reset+0x5a>
     49c:	683b      	ldr	r3, [r7, #0]
     49e:	1d1a      	adds	r2, r3, #4
     4a0:	603a      	str	r2, [r7, #0]
     4a2:	2200      	movs	r2, #0
     4a4:	601a      	str	r2, [r3, #0]
     4a6:	683a      	ldr	r2, [r7, #0]
     4a8:	4b0b      	ldr	r3, [pc, #44]	; (4d8 <handler_reset+0x8c>)
     4aa:	429a      	cmp	r2, r3
     4ac:	d3f6      	bcc.n	49c <handler_reset+0x50>
     4ae:	f7ff fe79 	bl	1a4 <main>
     4b2:	46c0      	nop			; (mov r8, r8)
     4b4:	46bd      	mov	sp, r7
     4b6:	b002      	add	sp, #8
     4b8:	bd80      	pop	{r7, pc}
     4ba:	46c0      	nop			; (mov r8, r8)
     4bc:	000090b8 	.word	0x000090b8
     4c0:	20000000 	.word	0x20000000
     4c4:	20000858 	.word	0x20000858
     4c8:	00009910 	.word	0x00009910
     4cc:	20100000 	.word	0x20100000
     4d0:	201002a0 	.word	0x201002a0
     4d4:	20000858 	.word	0x20000858
     4d8:	200060f8 	.word	0x200060f8

000004dc <default_handler>:
     4dc:	b580      	push	{r7, lr}
     4de:	af00      	add	r7, sp, #0
     4e0:	e7fe      	b.n	4e0 <default_handler+0x4>
     4e2:	46c0      	nop			; (mov r8, r8)

000004e4 <__NVIC_EnableIRQ>:
     4e4:	b580      	push	{r7, lr}
     4e6:	b082      	sub	sp, #8
     4e8:	af00      	add	r7, sp, #0
     4ea:	0002      	movs	r2, r0
     4ec:	1dfb      	adds	r3, r7, #7
     4ee:	701a      	strb	r2, [r3, #0]
     4f0:	1dfb      	adds	r3, r7, #7
     4f2:	781b      	ldrb	r3, [r3, #0]
     4f4:	2b7f      	cmp	r3, #127	; 0x7f
     4f6:	d809      	bhi.n	50c <__NVIC_EnableIRQ+0x28>
     4f8:	4b06      	ldr	r3, [pc, #24]	; (514 <__NVIC_EnableIRQ+0x30>)
     4fa:	1dfa      	adds	r2, r7, #7
     4fc:	7812      	ldrb	r2, [r2, #0]
     4fe:	0011      	movs	r1, r2
     500:	221f      	movs	r2, #31
     502:	400a      	ands	r2, r1
     504:	2101      	movs	r1, #1
     506:	4091      	lsls	r1, r2
     508:	000a      	movs	r2, r1
     50a:	601a      	str	r2, [r3, #0]
     50c:	46c0      	nop			; (mov r8, r8)
     50e:	46bd      	mov	sp, r7
     510:	b002      	add	sp, #8
     512:	bd80      	pop	{r7, pc}
     514:	e000e100 	.word	0xe000e100

00000518 <__NVIC_DisableIRQ>:
     518:	b580      	push	{r7, lr}
     51a:	b082      	sub	sp, #8
     51c:	af00      	add	r7, sp, #0
     51e:	0002      	movs	r2, r0
     520:	1dfb      	adds	r3, r7, #7
     522:	701a      	strb	r2, [r3, #0]
     524:	1dfb      	adds	r3, r7, #7
     526:	781b      	ldrb	r3, [r3, #0]
     528:	2b7f      	cmp	r3, #127	; 0x7f
     52a:	d80e      	bhi.n	54a <__NVIC_DisableIRQ+0x32>
     52c:	4909      	ldr	r1, [pc, #36]	; (554 <__NVIC_DisableIRQ+0x3c>)
     52e:	1dfb      	adds	r3, r7, #7
     530:	781b      	ldrb	r3, [r3, #0]
     532:	001a      	movs	r2, r3
     534:	231f      	movs	r3, #31
     536:	4013      	ands	r3, r2
     538:	2201      	movs	r2, #1
     53a:	409a      	lsls	r2, r3
     53c:	0013      	movs	r3, r2
     53e:	2280      	movs	r2, #128	; 0x80
     540:	508b      	str	r3, [r1, r2]
     542:	f3bf 8f4f 	dsb	sy
     546:	f3bf 8f6f 	isb	sy
     54a:	46c0      	nop			; (mov r8, r8)
     54c:	46bd      	mov	sp, r7
     54e:	b002      	add	sp, #8
     550:	bd80      	pop	{r7, pc}
     552:	46c0      	nop			; (mov r8, r8)
     554:	e000e100 	.word	0xe000e100

00000558 <mdb485_init>:
     558:	b580      	push	{r7, lr}
     55a:	af00      	add	r7, sp, #0
     55c:	4b14      	ldr	r3, [pc, #80]	; (5b0 <mdb485_init+0x58>)
     55e:	2234      	movs	r2, #52	; 0x34
     560:	625a      	str	r2, [r3, #36]	; 0x24
     562:	4b13      	ldr	r3, [pc, #76]	; (5b0 <mdb485_init+0x58>)
     564:	2205      	movs	r2, #5
     566:	629a      	str	r2, [r3, #40]	; 0x28
     568:	4b11      	ldr	r3, [pc, #68]	; (5b0 <mdb485_init+0x58>)
     56a:	4a11      	ldr	r2, [pc, #68]	; (5b0 <mdb485_init+0x58>)
     56c:	6b52      	ldr	r2, [r2, #52]	; 0x34
     56e:	213f      	movs	r1, #63	; 0x3f
     570:	438a      	bics	r2, r1
     572:	635a      	str	r2, [r3, #52]	; 0x34
     574:	4b0e      	ldr	r3, [pc, #56]	; (5b0 <mdb485_init+0x58>)
     576:	4a0e      	ldr	r2, [pc, #56]	; (5b0 <mdb485_init+0x58>)
     578:	6ad2      	ldr	r2, [r2, #44]	; 0x2c
     57a:	2110      	movs	r1, #16
     57c:	430a      	orrs	r2, r1
     57e:	62da      	str	r2, [r3, #44]	; 0x2c
     580:	4b0b      	ldr	r3, [pc, #44]	; (5b0 <mdb485_init+0x58>)
     582:	4a0b      	ldr	r2, [pc, #44]	; (5b0 <mdb485_init+0x58>)
     584:	6ad2      	ldr	r2, [r2, #44]	; 0x2c
     586:	2160      	movs	r1, #96	; 0x60
     588:	430a      	orrs	r2, r1
     58a:	62da      	str	r2, [r3, #44]	; 0x2c
     58c:	4b08      	ldr	r3, [pc, #32]	; (5b0 <mdb485_init+0x58>)
     58e:	4a08      	ldr	r2, [pc, #32]	; (5b0 <mdb485_init+0x58>)
     590:	6b12      	ldr	r2, [r2, #48]	; 0x30
     592:	4908      	ldr	r1, [pc, #32]	; (5b4 <mdb485_init+0x5c>)
     594:	430a      	orrs	r2, r1
     596:	631a      	str	r2, [r3, #48]	; 0x30
     598:	4b05      	ldr	r3, [pc, #20]	; (5b0 <mdb485_init+0x58>)
     59a:	4a05      	ldr	r2, [pc, #20]	; (5b0 <mdb485_init+0x58>)
     59c:	6b92      	ldr	r2, [r2, #56]	; 0x38
     59e:	2140      	movs	r1, #64	; 0x40
     5a0:	430a      	orrs	r2, r1
     5a2:	639a      	str	r2, [r3, #56]	; 0x38
     5a4:	2007      	movs	r0, #7
     5a6:	f7ff ff9d 	bl	4e4 <__NVIC_EnableIRQ>
     5aa:	46c0      	nop			; (mov r8, r8)
     5ac:	46bd      	mov	sp, r7
     5ae:	bd80      	pop	{r7, pc}
     5b0:	40038000 	.word	0x40038000
     5b4:	00000301 	.word	0x00000301

000005b8 <mdb485_send>:
     5b8:	b580      	push	{r7, lr}
     5ba:	b084      	sub	sp, #16
     5bc:	af00      	add	r7, sp, #0
     5be:	6078      	str	r0, [r7, #4]
     5c0:	6039      	str	r1, [r7, #0]
     5c2:	4b17      	ldr	r3, [pc, #92]	; (620 <mdb485_send+0x68>)
     5c4:	4a16      	ldr	r2, [pc, #88]	; (620 <mdb485_send+0x68>)
     5c6:	6812      	ldr	r2, [r2, #0]
     5c8:	2180      	movs	r1, #128	; 0x80
     5ca:	0209      	lsls	r1, r1, #8
     5cc:	430a      	orrs	r2, r1
     5ce:	601a      	str	r2, [r3, #0]
     5d0:	2300      	movs	r3, #0
     5d2:	60fb      	str	r3, [r7, #12]
     5d4:	e00e      	b.n	5f4 <mdb485_send+0x3c>
     5d6:	46c0      	nop			; (mov r8, r8)
     5d8:	4b12      	ldr	r3, [pc, #72]	; (624 <mdb485_send+0x6c>)
     5da:	699b      	ldr	r3, [r3, #24]
     5dc:	2220      	movs	r2, #32
     5de:	4013      	ands	r3, r2
     5e0:	d1fa      	bne.n	5d8 <mdb485_send+0x20>
     5e2:	4a10      	ldr	r2, [pc, #64]	; (624 <mdb485_send+0x6c>)
     5e4:	687b      	ldr	r3, [r7, #4]
     5e6:	1c59      	adds	r1, r3, #1
     5e8:	6079      	str	r1, [r7, #4]
     5ea:	781b      	ldrb	r3, [r3, #0]
     5ec:	6013      	str	r3, [r2, #0]
     5ee:	68fb      	ldr	r3, [r7, #12]
     5f0:	3301      	adds	r3, #1
     5f2:	60fb      	str	r3, [r7, #12]
     5f4:	68fa      	ldr	r2, [r7, #12]
     5f6:	683b      	ldr	r3, [r7, #0]
     5f8:	429a      	cmp	r2, r3
     5fa:	dbec      	blt.n	5d6 <mdb485_send+0x1e>
     5fc:	46c0      	nop			; (mov r8, r8)
     5fe:	4b09      	ldr	r3, [pc, #36]	; (624 <mdb485_send+0x6c>)
     600:	699b      	ldr	r3, [r3, #24]
     602:	2208      	movs	r2, #8
     604:	4013      	ands	r3, r2
     606:	d1fa      	bne.n	5fe <mdb485_send+0x46>
     608:	4b05      	ldr	r3, [pc, #20]	; (620 <mdb485_send+0x68>)
     60a:	4a05      	ldr	r2, [pc, #20]	; (620 <mdb485_send+0x68>)
     60c:	6812      	ldr	r2, [r2, #0]
     60e:	4906      	ldr	r1, [pc, #24]	; (628 <mdb485_send+0x70>)
     610:	400a      	ands	r2, r1
     612:	601a      	str	r2, [r3, #0]
     614:	683b      	ldr	r3, [r7, #0]
     616:	0018      	movs	r0, r3
     618:	46bd      	mov	sp, r7
     61a:	b004      	add	sp, #16
     61c:	bd80      	pop	{r7, pc}
     61e:	46c0      	nop			; (mov r8, r8)
     620:	400c0000 	.word	0x400c0000
     624:	40038000 	.word	0x40038000
     628:	ffff7fff 	.word	0xffff7fff

0000062c <mdb485_putch>:
     62c:	b580      	push	{r7, lr}
     62e:	b082      	sub	sp, #8
     630:	af00      	add	r7, sp, #0
     632:	0002      	movs	r2, r0
     634:	1dfb      	adds	r3, r7, #7
     636:	701a      	strb	r2, [r3, #0]
     638:	46c0      	nop			; (mov r8, r8)
     63a:	4b06      	ldr	r3, [pc, #24]	; (654 <mdb485_putch+0x28>)
     63c:	699b      	ldr	r3, [r3, #24]
     63e:	2220      	movs	r2, #32
     640:	4013      	ands	r3, r2
     642:	d1fa      	bne.n	63a <mdb485_putch+0xe>
     644:	4b03      	ldr	r3, [pc, #12]	; (654 <mdb485_putch+0x28>)
     646:	1dfa      	adds	r2, r7, #7
     648:	7812      	ldrb	r2, [r2, #0]
     64a:	601a      	str	r2, [r3, #0]
     64c:	46c0      	nop			; (mov r8, r8)
     64e:	46bd      	mov	sp, r7
     650:	b002      	add	sp, #8
     652:	bd80      	pop	{r7, pc}
     654:	40038000 	.word	0x40038000

00000658 <mdb485_writeregs>:
     658:	b590      	push	{r4, r7, lr}
     65a:	b089      	sub	sp, #36	; 0x24
     65c:	af00      	add	r7, sp, #0
     65e:	0004      	movs	r4, r0
     660:	0008      	movs	r0, r1
     662:	0011      	movs	r1, r2
     664:	607b      	str	r3, [r7, #4]
     666:	230f      	movs	r3, #15
     668:	18fb      	adds	r3, r7, r3
     66a:	1c22      	adds	r2, r4, #0
     66c:	701a      	strb	r2, [r3, #0]
     66e:	230c      	movs	r3, #12
     670:	18fb      	adds	r3, r7, r3
     672:	1c02      	adds	r2, r0, #0
     674:	801a      	strh	r2, [r3, #0]
     676:	230a      	movs	r3, #10
     678:	18fb      	adds	r3, r7, r3
     67a:	1c0a      	adds	r2, r1, #0
     67c:	801a      	strh	r2, [r3, #0]
     67e:	4b48      	ldr	r3, [pc, #288]	; (7a0 <mdb485_writeregs+0x148>)
     680:	61bb      	str	r3, [r7, #24]
     682:	230a      	movs	r3, #10
     684:	18fb      	adds	r3, r7, r3
     686:	881b      	ldrh	r3, [r3, #0]
     688:	005b      	lsls	r3, r3, #1
     68a:	617b      	str	r3, [r7, #20]
     68c:	69bb      	ldr	r3, [r7, #24]
     68e:	1c5a      	adds	r2, r3, #1
     690:	61ba      	str	r2, [r7, #24]
     692:	220f      	movs	r2, #15
     694:	18ba      	adds	r2, r7, r2
     696:	7812      	ldrb	r2, [r2, #0]
     698:	701a      	strb	r2, [r3, #0]
     69a:	69bb      	ldr	r3, [r7, #24]
     69c:	1c5a      	adds	r2, r3, #1
     69e:	61ba      	str	r2, [r7, #24]
     6a0:	2210      	movs	r2, #16
     6a2:	701a      	strb	r2, [r3, #0]
     6a4:	69bb      	ldr	r3, [r7, #24]
     6a6:	1c5a      	adds	r2, r3, #1
     6a8:	61ba      	str	r2, [r7, #24]
     6aa:	220c      	movs	r2, #12
     6ac:	18ba      	adds	r2, r7, r2
     6ae:	8812      	ldrh	r2, [r2, #0]
     6b0:	0a12      	lsrs	r2, r2, #8
     6b2:	b292      	uxth	r2, r2
     6b4:	b2d2      	uxtb	r2, r2
     6b6:	701a      	strb	r2, [r3, #0]
     6b8:	69bb      	ldr	r3, [r7, #24]
     6ba:	1c5a      	adds	r2, r3, #1
     6bc:	61ba      	str	r2, [r7, #24]
     6be:	220c      	movs	r2, #12
     6c0:	18ba      	adds	r2, r7, r2
     6c2:	8812      	ldrh	r2, [r2, #0]
     6c4:	b2d2      	uxtb	r2, r2
     6c6:	701a      	strb	r2, [r3, #0]
     6c8:	69bb      	ldr	r3, [r7, #24]
     6ca:	1c5a      	adds	r2, r3, #1
     6cc:	61ba      	str	r2, [r7, #24]
     6ce:	220a      	movs	r2, #10
     6d0:	18ba      	adds	r2, r7, r2
     6d2:	8812      	ldrh	r2, [r2, #0]
     6d4:	0a12      	lsrs	r2, r2, #8
     6d6:	b292      	uxth	r2, r2
     6d8:	b2d2      	uxtb	r2, r2
     6da:	701a      	strb	r2, [r3, #0]
     6dc:	69bb      	ldr	r3, [r7, #24]
     6de:	1c5a      	adds	r2, r3, #1
     6e0:	61ba      	str	r2, [r7, #24]
     6e2:	220a      	movs	r2, #10
     6e4:	18ba      	adds	r2, r7, r2
     6e6:	8812      	ldrh	r2, [r2, #0]
     6e8:	b2d2      	uxtb	r2, r2
     6ea:	701a      	strb	r2, [r3, #0]
     6ec:	69bb      	ldr	r3, [r7, #24]
     6ee:	1c5a      	adds	r2, r3, #1
     6f0:	61ba      	str	r2, [r7, #24]
     6f2:	697a      	ldr	r2, [r7, #20]
     6f4:	b2d2      	uxtb	r2, r2
     6f6:	701a      	strb	r2, [r3, #0]
     6f8:	697b      	ldr	r3, [r7, #20]
     6fa:	3307      	adds	r3, #7
     6fc:	2b10      	cmp	r3, #16
     6fe:	dc4a      	bgt.n	796 <mdb485_writeregs+0x13e>
     700:	2300      	movs	r3, #0
     702:	61fb      	str	r3, [r7, #28]
     704:	e01b      	b.n	73e <mdb485_writeregs+0xe6>
     706:	687b      	ldr	r3, [r7, #4]
     708:	1c9a      	adds	r2, r3, #2
     70a:	607a      	str	r2, [r7, #4]
     70c:	2212      	movs	r2, #18
     70e:	18ba      	adds	r2, r7, r2
     710:	881b      	ldrh	r3, [r3, #0]
     712:	8013      	strh	r3, [r2, #0]
     714:	69bb      	ldr	r3, [r7, #24]
     716:	1c5a      	adds	r2, r3, #1
     718:	61ba      	str	r2, [r7, #24]
     71a:	2212      	movs	r2, #18
     71c:	18ba      	adds	r2, r7, r2
     71e:	8812      	ldrh	r2, [r2, #0]
     720:	0a12      	lsrs	r2, r2, #8
     722:	b292      	uxth	r2, r2
     724:	b2d2      	uxtb	r2, r2
     726:	701a      	strb	r2, [r3, #0]
     728:	69bb      	ldr	r3, [r7, #24]
     72a:	1c5a      	adds	r2, r3, #1
     72c:	61ba      	str	r2, [r7, #24]
     72e:	2212      	movs	r2, #18
     730:	18ba      	adds	r2, r7, r2
     732:	8812      	ldrh	r2, [r2, #0]
     734:	b2d2      	uxtb	r2, r2
     736:	701a      	strb	r2, [r3, #0]
     738:	69fb      	ldr	r3, [r7, #28]
     73a:	3301      	adds	r3, #1
     73c:	61fb      	str	r3, [r7, #28]
     73e:	230a      	movs	r3, #10
     740:	18fb      	adds	r3, r7, r3
     742:	881a      	ldrh	r2, [r3, #0]
     744:	69fb      	ldr	r3, [r7, #28]
     746:	429a      	cmp	r2, r3
     748:	dcdd      	bgt.n	706 <mdb485_writeregs+0xae>
     74a:	697b      	ldr	r3, [r7, #20]
     74c:	1dda      	adds	r2, r3, #7
     74e:	2310      	movs	r3, #16
     750:	18fc      	adds	r4, r7, r3
     752:	4b13      	ldr	r3, [pc, #76]	; (7a0 <mdb485_writeregs+0x148>)
     754:	0011      	movs	r1, r2
     756:	0018      	movs	r0, r3
     758:	f002 fca6 	bl	30a8 <crc16>
     75c:	0003      	movs	r3, r0
     75e:	8023      	strh	r3, [r4, #0]
     760:	69bb      	ldr	r3, [r7, #24]
     762:	1c5a      	adds	r2, r3, #1
     764:	61ba      	str	r2, [r7, #24]
     766:	2210      	movs	r2, #16
     768:	18ba      	adds	r2, r7, r2
     76a:	8812      	ldrh	r2, [r2, #0]
     76c:	b2d2      	uxtb	r2, r2
     76e:	701a      	strb	r2, [r3, #0]
     770:	69bb      	ldr	r3, [r7, #24]
     772:	1c5a      	adds	r2, r3, #1
     774:	61ba      	str	r2, [r7, #24]
     776:	2210      	movs	r2, #16
     778:	18ba      	adds	r2, r7, r2
     77a:	8812      	ldrh	r2, [r2, #0]
     77c:	0a12      	lsrs	r2, r2, #8
     77e:	b292      	uxth	r2, r2
     780:	b2d2      	uxtb	r2, r2
     782:	701a      	strb	r2, [r3, #0]
     784:	697b      	ldr	r3, [r7, #20]
     786:	3309      	adds	r3, #9
     788:	001a      	movs	r2, r3
     78a:	4b05      	ldr	r3, [pc, #20]	; (7a0 <mdb485_writeregs+0x148>)
     78c:	0011      	movs	r1, r2
     78e:	0018      	movs	r0, r3
     790:	f7ff ff12 	bl	5b8 <mdb485_send>
     794:	e000      	b.n	798 <mdb485_writeregs+0x140>
     796:	46c0      	nop			; (mov r8, r8)
     798:	46bd      	mov	sp, r7
     79a:	b009      	add	sp, #36	; 0x24
     79c:	bd90      	pop	{r4, r7, pc}
     79e:	46c0      	nop			; (mov r8, r8)
     7a0:	200008bc 	.word	0x200008bc

000007a4 <mdb485_readregs>:
     7a4:	b590      	push	{r4, r7, lr}
     7a6:	b085      	sub	sp, #20
     7a8:	af00      	add	r7, sp, #0
     7aa:	0004      	movs	r4, r0
     7ac:	0008      	movs	r0, r1
     7ae:	0011      	movs	r1, r2
     7b0:	1dfb      	adds	r3, r7, #7
     7b2:	1c22      	adds	r2, r4, #0
     7b4:	701a      	strb	r2, [r3, #0]
     7b6:	1d3b      	adds	r3, r7, #4
     7b8:	1c02      	adds	r2, r0, #0
     7ba:	801a      	strh	r2, [r3, #0]
     7bc:	1cbb      	adds	r3, r7, #2
     7be:	1c0a      	adds	r2, r1, #0
     7c0:	801a      	strh	r2, [r3, #0]
     7c2:	4b28      	ldr	r3, [pc, #160]	; (864 <mdb485_readregs+0xc0>)
     7c4:	60fb      	str	r3, [r7, #12]
     7c6:	68fb      	ldr	r3, [r7, #12]
     7c8:	1c5a      	adds	r2, r3, #1
     7ca:	60fa      	str	r2, [r7, #12]
     7cc:	1dfa      	adds	r2, r7, #7
     7ce:	7812      	ldrb	r2, [r2, #0]
     7d0:	701a      	strb	r2, [r3, #0]
     7d2:	68fb      	ldr	r3, [r7, #12]
     7d4:	1c5a      	adds	r2, r3, #1
     7d6:	60fa      	str	r2, [r7, #12]
     7d8:	2203      	movs	r2, #3
     7da:	701a      	strb	r2, [r3, #0]
     7dc:	68fb      	ldr	r3, [r7, #12]
     7de:	1c5a      	adds	r2, r3, #1
     7e0:	60fa      	str	r2, [r7, #12]
     7e2:	1d3a      	adds	r2, r7, #4
     7e4:	8812      	ldrh	r2, [r2, #0]
     7e6:	0a12      	lsrs	r2, r2, #8
     7e8:	b292      	uxth	r2, r2
     7ea:	b2d2      	uxtb	r2, r2
     7ec:	701a      	strb	r2, [r3, #0]
     7ee:	68fb      	ldr	r3, [r7, #12]
     7f0:	1c5a      	adds	r2, r3, #1
     7f2:	60fa      	str	r2, [r7, #12]
     7f4:	1d3a      	adds	r2, r7, #4
     7f6:	8812      	ldrh	r2, [r2, #0]
     7f8:	b2d2      	uxtb	r2, r2
     7fa:	701a      	strb	r2, [r3, #0]
     7fc:	68fb      	ldr	r3, [r7, #12]
     7fe:	1c5a      	adds	r2, r3, #1
     800:	60fa      	str	r2, [r7, #12]
     802:	1cba      	adds	r2, r7, #2
     804:	8812      	ldrh	r2, [r2, #0]
     806:	0a12      	lsrs	r2, r2, #8
     808:	b292      	uxth	r2, r2
     80a:	b2d2      	uxtb	r2, r2
     80c:	701a      	strb	r2, [r3, #0]
     80e:	68fb      	ldr	r3, [r7, #12]
     810:	1c5a      	adds	r2, r3, #1
     812:	60fa      	str	r2, [r7, #12]
     814:	1cba      	adds	r2, r7, #2
     816:	8812      	ldrh	r2, [r2, #0]
     818:	b2d2      	uxtb	r2, r2
     81a:	701a      	strb	r2, [r3, #0]
     81c:	230a      	movs	r3, #10
     81e:	18fc      	adds	r4, r7, r3
     820:	4b10      	ldr	r3, [pc, #64]	; (864 <mdb485_readregs+0xc0>)
     822:	2106      	movs	r1, #6
     824:	0018      	movs	r0, r3
     826:	f002 fc3f 	bl	30a8 <crc16>
     82a:	0003      	movs	r3, r0
     82c:	8023      	strh	r3, [r4, #0]
     82e:	68fb      	ldr	r3, [r7, #12]
     830:	1c5a      	adds	r2, r3, #1
     832:	60fa      	str	r2, [r7, #12]
     834:	220a      	movs	r2, #10
     836:	18ba      	adds	r2, r7, r2
     838:	8812      	ldrh	r2, [r2, #0]
     83a:	b2d2      	uxtb	r2, r2
     83c:	701a      	strb	r2, [r3, #0]
     83e:	68fb      	ldr	r3, [r7, #12]
     840:	1c5a      	adds	r2, r3, #1
     842:	60fa      	str	r2, [r7, #12]
     844:	220a      	movs	r2, #10
     846:	18ba      	adds	r2, r7, r2
     848:	8812      	ldrh	r2, [r2, #0]
     84a:	0a12      	lsrs	r2, r2, #8
     84c:	b292      	uxth	r2, r2
     84e:	b2d2      	uxtb	r2, r2
     850:	701a      	strb	r2, [r3, #0]
     852:	4b04      	ldr	r3, [pc, #16]	; (864 <mdb485_readregs+0xc0>)
     854:	2108      	movs	r1, #8
     856:	0018      	movs	r0, r3
     858:	f7ff feae 	bl	5b8 <mdb485_send>
     85c:	46c0      	nop			; (mov r8, r8)
     85e:	46bd      	mov	sp, r7
     860:	b005      	add	sp, #20
     862:	bd90      	pop	{r4, r7, pc}
     864:	200008bc 	.word	0x200008bc

00000868 <mdb485_read_inputregs>:
     868:	b590      	push	{r4, r7, lr}
     86a:	b085      	sub	sp, #20
     86c:	af00      	add	r7, sp, #0
     86e:	0004      	movs	r4, r0
     870:	0008      	movs	r0, r1
     872:	0011      	movs	r1, r2
     874:	1dfb      	adds	r3, r7, #7
     876:	1c22      	adds	r2, r4, #0
     878:	701a      	strb	r2, [r3, #0]
     87a:	1d3b      	adds	r3, r7, #4
     87c:	1c02      	adds	r2, r0, #0
     87e:	801a      	strh	r2, [r3, #0]
     880:	1cbb      	adds	r3, r7, #2
     882:	1c0a      	adds	r2, r1, #0
     884:	801a      	strh	r2, [r3, #0]
     886:	4b28      	ldr	r3, [pc, #160]	; (928 <mdb485_read_inputregs+0xc0>)
     888:	60fb      	str	r3, [r7, #12]
     88a:	68fb      	ldr	r3, [r7, #12]
     88c:	1c5a      	adds	r2, r3, #1
     88e:	60fa      	str	r2, [r7, #12]
     890:	1dfa      	adds	r2, r7, #7
     892:	7812      	ldrb	r2, [r2, #0]
     894:	701a      	strb	r2, [r3, #0]
     896:	68fb      	ldr	r3, [r7, #12]
     898:	1c5a      	adds	r2, r3, #1
     89a:	60fa      	str	r2, [r7, #12]
     89c:	2204      	movs	r2, #4
     89e:	701a      	strb	r2, [r3, #0]
     8a0:	68fb      	ldr	r3, [r7, #12]
     8a2:	1c5a      	adds	r2, r3, #1
     8a4:	60fa      	str	r2, [r7, #12]
     8a6:	1d3a      	adds	r2, r7, #4
     8a8:	8812      	ldrh	r2, [r2, #0]
     8aa:	0a12      	lsrs	r2, r2, #8
     8ac:	b292      	uxth	r2, r2
     8ae:	b2d2      	uxtb	r2, r2
     8b0:	701a      	strb	r2, [r3, #0]
     8b2:	68fb      	ldr	r3, [r7, #12]
     8b4:	1c5a      	adds	r2, r3, #1
     8b6:	60fa      	str	r2, [r7, #12]
     8b8:	1d3a      	adds	r2, r7, #4
     8ba:	8812      	ldrh	r2, [r2, #0]
     8bc:	b2d2      	uxtb	r2, r2
     8be:	701a      	strb	r2, [r3, #0]
     8c0:	68fb      	ldr	r3, [r7, #12]
     8c2:	1c5a      	adds	r2, r3, #1
     8c4:	60fa      	str	r2, [r7, #12]
     8c6:	1cba      	adds	r2, r7, #2
     8c8:	8812      	ldrh	r2, [r2, #0]
     8ca:	0a12      	lsrs	r2, r2, #8
     8cc:	b292      	uxth	r2, r2
     8ce:	b2d2      	uxtb	r2, r2
     8d0:	701a      	strb	r2, [r3, #0]
     8d2:	68fb      	ldr	r3, [r7, #12]
     8d4:	1c5a      	adds	r2, r3, #1
     8d6:	60fa      	str	r2, [r7, #12]
     8d8:	1cba      	adds	r2, r7, #2
     8da:	8812      	ldrh	r2, [r2, #0]
     8dc:	b2d2      	uxtb	r2, r2
     8de:	701a      	strb	r2, [r3, #0]
     8e0:	230a      	movs	r3, #10
     8e2:	18fc      	adds	r4, r7, r3
     8e4:	4b10      	ldr	r3, [pc, #64]	; (928 <mdb485_read_inputregs+0xc0>)
     8e6:	2106      	movs	r1, #6
     8e8:	0018      	movs	r0, r3
     8ea:	f002 fbdd 	bl	30a8 <crc16>
     8ee:	0003      	movs	r3, r0
     8f0:	8023      	strh	r3, [r4, #0]
     8f2:	68fb      	ldr	r3, [r7, #12]
     8f4:	1c5a      	adds	r2, r3, #1
     8f6:	60fa      	str	r2, [r7, #12]
     8f8:	220a      	movs	r2, #10
     8fa:	18ba      	adds	r2, r7, r2
     8fc:	8812      	ldrh	r2, [r2, #0]
     8fe:	b2d2      	uxtb	r2, r2
     900:	701a      	strb	r2, [r3, #0]
     902:	68fb      	ldr	r3, [r7, #12]
     904:	1c5a      	adds	r2, r3, #1
     906:	60fa      	str	r2, [r7, #12]
     908:	220a      	movs	r2, #10
     90a:	18ba      	adds	r2, r7, r2
     90c:	8812      	ldrh	r2, [r2, #0]
     90e:	0a12      	lsrs	r2, r2, #8
     910:	b292      	uxth	r2, r2
     912:	b2d2      	uxtb	r2, r2
     914:	701a      	strb	r2, [r3, #0]
     916:	4b04      	ldr	r3, [pc, #16]	; (928 <mdb485_read_inputregs+0xc0>)
     918:	2108      	movs	r1, #8
     91a:	0018      	movs	r0, r3
     91c:	f7ff fe4c 	bl	5b8 <mdb485_send>
     920:	46c0      	nop			; (mov r8, r8)
     922:	46bd      	mov	sp, r7
     924:	b005      	add	sp, #20
     926:	bd90      	pop	{r4, r7, pc}
     928:	200008bc 	.word	0x200008bc

0000092c <mdb485_get_func>:
     92c:	b580      	push	{r7, lr}
     92e:	b082      	sub	sp, #8
     930:	af00      	add	r7, sp, #0
     932:	2007      	movs	r0, #7
     934:	f7ff fdf0 	bl	518 <__NVIC_DisableIRQ>
     938:	4b05      	ldr	r3, [pc, #20]	; (950 <mdb485_get_func+0x24>)
     93a:	785b      	ldrb	r3, [r3, #1]
     93c:	607b      	str	r3, [r7, #4]
     93e:	2007      	movs	r0, #7
     940:	f7ff fdd0 	bl	4e4 <__NVIC_EnableIRQ>
     944:	687b      	ldr	r3, [r7, #4]
     946:	0018      	movs	r0, r3
     948:	46bd      	mov	sp, r7
     94a:	b002      	add	sp, #8
     94c:	bd80      	pop	{r7, pc}
     94e:	46c0      	nop			; (mov r8, r8)
     950:	200008ac 	.word	0x200008ac

00000954 <mdb485_get_crc>:
     954:	b590      	push	{r4, r7, lr}
     956:	b083      	sub	sp, #12
     958:	af00      	add	r7, sp, #0
     95a:	2007      	movs	r0, #7
     95c:	f7ff fddc 	bl	518 <__NVIC_DisableIRQ>
     960:	4b09      	ldr	r3, [pc, #36]	; (988 <mdb485_get_crc+0x34>)
     962:	681a      	ldr	r2, [r3, #0]
     964:	1dbc      	adds	r4, r7, #6
     966:	4b09      	ldr	r3, [pc, #36]	; (98c <mdb485_get_crc+0x38>)
     968:	0011      	movs	r1, r2
     96a:	0018      	movs	r0, r3
     96c:	f002 fb9c 	bl	30a8 <crc16>
     970:	0003      	movs	r3, r0
     972:	8023      	strh	r3, [r4, #0]
     974:	2007      	movs	r0, #7
     976:	f7ff fdb5 	bl	4e4 <__NVIC_EnableIRQ>
     97a:	1dbb      	adds	r3, r7, #6
     97c:	881b      	ldrh	r3, [r3, #0]
     97e:	0018      	movs	r0, r3
     980:	46bd      	mov	sp, r7
     982:	b003      	add	sp, #12
     984:	bd90      	pop	{r4, r7, pc}
     986:	46c0      	nop			; (mov r8, r8)
     988:	200008cc 	.word	0x200008cc
     98c:	200008ac 	.word	0x200008ac

00000990 <mdb485_si30_get_counter>:
     990:	b580      	push	{r7, lr}
     992:	b082      	sub	sp, #8
     994:	af00      	add	r7, sp, #0
     996:	4b1a      	ldr	r3, [pc, #104]	; (a00 <mdb485_si30_get_counter+0x70>)
     998:	607b      	str	r3, [r7, #4]
     99a:	2007      	movs	r0, #7
     99c:	f7ff fdbc 	bl	518 <__NVIC_DisableIRQ>
     9a0:	4b18      	ldr	r3, [pc, #96]	; (a04 <mdb485_si30_get_counter+0x74>)
     9a2:	681b      	ldr	r3, [r3, #0]
     9a4:	2b00      	cmp	r3, #0
     9a6:	d022      	beq.n	9ee <mdb485_si30_get_counter+0x5e>
     9a8:	687b      	ldr	r3, [r7, #4]
     9aa:	1c5a      	adds	r2, r3, #1
     9ac:	607a      	str	r2, [r7, #4]
     9ae:	781b      	ldrb	r3, [r3, #0]
     9b0:	061b      	lsls	r3, r3, #24
     9b2:	603b      	str	r3, [r7, #0]
     9b4:	687b      	ldr	r3, [r7, #4]
     9b6:	1c5a      	adds	r2, r3, #1
     9b8:	607a      	str	r2, [r7, #4]
     9ba:	781b      	ldrb	r3, [r3, #0]
     9bc:	041b      	lsls	r3, r3, #16
     9be:	001a      	movs	r2, r3
     9c0:	683b      	ldr	r3, [r7, #0]
     9c2:	4313      	orrs	r3, r2
     9c4:	603b      	str	r3, [r7, #0]
     9c6:	687b      	ldr	r3, [r7, #4]
     9c8:	1c5a      	adds	r2, r3, #1
     9ca:	607a      	str	r2, [r7, #4]
     9cc:	781b      	ldrb	r3, [r3, #0]
     9ce:	021b      	lsls	r3, r3, #8
     9d0:	001a      	movs	r2, r3
     9d2:	683b      	ldr	r3, [r7, #0]
     9d4:	4313      	orrs	r3, r2
     9d6:	603b      	str	r3, [r7, #0]
     9d8:	687b      	ldr	r3, [r7, #4]
     9da:	781b      	ldrb	r3, [r3, #0]
     9dc:	001a      	movs	r2, r3
     9de:	683b      	ldr	r3, [r7, #0]
     9e0:	4313      	orrs	r3, r2
     9e2:	603b      	str	r3, [r7, #0]
     9e4:	2007      	movs	r0, #7
     9e6:	f7ff fd7d 	bl	4e4 <__NVIC_EnableIRQ>
     9ea:	683b      	ldr	r3, [r7, #0]
     9ec:	e003      	b.n	9f6 <mdb485_si30_get_counter+0x66>
     9ee:	2007      	movs	r0, #7
     9f0:	f7ff fd78 	bl	4e4 <__NVIC_EnableIRQ>
     9f4:	2300      	movs	r3, #0
     9f6:	0018      	movs	r0, r3
     9f8:	46bd      	mov	sp, r7
     9fa:	b002      	add	sp, #8
     9fc:	bd80      	pop	{r7, pc}
     9fe:	46c0      	nop			; (mov r8, r8)
     a00:	200008af 	.word	0x200008af
     a04:	200008cc 	.word	0x200008cc

00000a08 <UART2_Handler>:
     a08:	b580      	push	{r7, lr}
     a0a:	b082      	sub	sp, #8
     a0c:	af00      	add	r7, sp, #0
     a0e:	4b16      	ldr	r3, [pc, #88]	; (a68 <UART2_Handler+0x60>)
     a10:	2200      	movs	r2, #0
     a12:	601a      	str	r2, [r3, #0]
     a14:	4b15      	ldr	r3, [pc, #84]	; (a6c <UART2_Handler+0x64>)
     a16:	6c1b      	ldr	r3, [r3, #64]	; 0x40
     a18:	2240      	movs	r2, #64	; 0x40
     a1a:	4013      	ands	r3, r2
     a1c:	d016      	beq.n	a4c <UART2_Handler+0x44>
     a1e:	4b14      	ldr	r3, [pc, #80]	; (a70 <UART2_Handler+0x68>)
     a20:	603b      	str	r3, [r7, #0]
     a22:	2300      	movs	r3, #0
     a24:	607b      	str	r3, [r7, #4]
     a26:	e009      	b.n	a3c <UART2_Handler+0x34>
     a28:	683b      	ldr	r3, [r7, #0]
     a2a:	1c5a      	adds	r2, r3, #1
     a2c:	603a      	str	r2, [r7, #0]
     a2e:	4a0f      	ldr	r2, [pc, #60]	; (a6c <UART2_Handler+0x64>)
     a30:	6812      	ldr	r2, [r2, #0]
     a32:	b2d2      	uxtb	r2, r2
     a34:	701a      	strb	r2, [r3, #0]
     a36:	687b      	ldr	r3, [r7, #4]
     a38:	3301      	adds	r3, #1
     a3a:	607b      	str	r3, [r7, #4]
     a3c:	687b      	ldr	r3, [r7, #4]
     a3e:	2b0f      	cmp	r3, #15
     a40:	dc04      	bgt.n	a4c <UART2_Handler+0x44>
     a42:	4b0a      	ldr	r3, [pc, #40]	; (a6c <UART2_Handler+0x64>)
     a44:	699b      	ldr	r3, [r3, #24]
     a46:	2210      	movs	r2, #16
     a48:	4013      	ands	r3, r2
     a4a:	d0ed      	beq.n	a28 <UART2_Handler+0x20>
     a4c:	4b06      	ldr	r3, [pc, #24]	; (a68 <UART2_Handler+0x60>)
     a4e:	687a      	ldr	r2, [r7, #4]
     a50:	601a      	str	r2, [r3, #0]
     a52:	4b08      	ldr	r3, [pc, #32]	; (a74 <UART2_Handler+0x6c>)
     a54:	681b      	ldr	r3, [r3, #0]
     a56:	2108      	movs	r1, #8
     a58:	0018      	movs	r0, r3
     a5a:	f005 fc05 	bl	6268 <osSignalSet>
     a5e:	46c0      	nop			; (mov r8, r8)
     a60:	46bd      	mov	sp, r7
     a62:	b002      	add	sp, #8
     a64:	bd80      	pop	{r7, pc}
     a66:	46c0      	nop			; (mov r8, r8)
     a68:	200008cc 	.word	0x200008cc
     a6c:	40038000 	.word	0x40038000
     a70:	200008ac 	.word	0x200008ac
     a74:	20000860 	.word	0x20000860

00000a78 <_exit>:
     a78:	b580      	push	{r7, lr}
     a7a:	b082      	sub	sp, #8
     a7c:	af00      	add	r7, sp, #0
     a7e:	6078      	str	r0, [r7, #4]
     a80:	4b03      	ldr	r3, [pc, #12]	; (a90 <_exit+0x18>)
     a82:	2204      	movs	r2, #4
     a84:	0019      	movs	r1, r3
     a86:	2001      	movs	r0, #1
     a88:	f000 f90c 	bl	ca4 <_write>
     a8c:	e7fe      	b.n	a8c <_exit+0x14>
     a8e:	46c0      	nop			; (mov r8, r8)
     a90:	00008574 	.word	0x00008574

00000a94 <_close>:
     a94:	b580      	push	{r7, lr}
     a96:	b082      	sub	sp, #8
     a98:	af00      	add	r7, sp, #0
     a9a:	6078      	str	r0, [r7, #4]
     a9c:	2301      	movs	r3, #1
     a9e:	425b      	negs	r3, r3
     aa0:	0018      	movs	r0, r3
     aa2:	46bd      	mov	sp, r7
     aa4:	b002      	add	sp, #8
     aa6:	bd80      	pop	{r7, pc}

00000aa8 <_execve>:
     aa8:	b580      	push	{r7, lr}
     aaa:	b084      	sub	sp, #16
     aac:	af00      	add	r7, sp, #0
     aae:	60f8      	str	r0, [r7, #12]
     ab0:	60b9      	str	r1, [r7, #8]
     ab2:	607a      	str	r2, [r7, #4]
     ab4:	4b04      	ldr	r3, [pc, #16]	; (ac8 <_execve+0x20>)
     ab6:	220c      	movs	r2, #12
     ab8:	601a      	str	r2, [r3, #0]
     aba:	2301      	movs	r3, #1
     abc:	425b      	negs	r3, r3
     abe:	0018      	movs	r0, r3
     ac0:	46bd      	mov	sp, r7
     ac2:	b004      	add	sp, #16
     ac4:	bd80      	pop	{r7, pc}
     ac6:	46c0      	nop			; (mov r8, r8)
     ac8:	20006070 	.word	0x20006070

00000acc <_fork>:
     acc:	b580      	push	{r7, lr}
     ace:	af00      	add	r7, sp, #0
     ad0:	4b03      	ldr	r3, [pc, #12]	; (ae0 <_fork+0x14>)
     ad2:	220b      	movs	r2, #11
     ad4:	601a      	str	r2, [r3, #0]
     ad6:	2301      	movs	r3, #1
     ad8:	425b      	negs	r3, r3
     ada:	0018      	movs	r0, r3
     adc:	46bd      	mov	sp, r7
     ade:	bd80      	pop	{r7, pc}
     ae0:	20006070 	.word	0x20006070

00000ae4 <_fstat>:
     ae4:	b580      	push	{r7, lr}
     ae6:	b082      	sub	sp, #8
     ae8:	af00      	add	r7, sp, #0
     aea:	6078      	str	r0, [r7, #4]
     aec:	6039      	str	r1, [r7, #0]
     aee:	683b      	ldr	r3, [r7, #0]
     af0:	2280      	movs	r2, #128	; 0x80
     af2:	0192      	lsls	r2, r2, #6
     af4:	605a      	str	r2, [r3, #4]
     af6:	2300      	movs	r3, #0
     af8:	0018      	movs	r0, r3
     afa:	46bd      	mov	sp, r7
     afc:	b002      	add	sp, #8
     afe:	bd80      	pop	{r7, pc}

00000b00 <_getpid>:
     b00:	b580      	push	{r7, lr}
     b02:	af00      	add	r7, sp, #0
     b04:	2301      	movs	r3, #1
     b06:	0018      	movs	r0, r3
     b08:	46bd      	mov	sp, r7
     b0a:	bd80      	pop	{r7, pc}

00000b0c <_isatty>:
     b0c:	b580      	push	{r7, lr}
     b0e:	b082      	sub	sp, #8
     b10:	af00      	add	r7, sp, #0
     b12:	6078      	str	r0, [r7, #4]
     b14:	687b      	ldr	r3, [r7, #4]
     b16:	3300      	adds	r3, #0
     b18:	2b02      	cmp	r3, #2
     b1a:	d801      	bhi.n	b20 <_isatty+0x14>
     b1c:	2301      	movs	r3, #1
     b1e:	e003      	b.n	b28 <_isatty+0x1c>
     b20:	4b03      	ldr	r3, [pc, #12]	; (b30 <_isatty+0x24>)
     b22:	2209      	movs	r2, #9
     b24:	601a      	str	r2, [r3, #0]
     b26:	2300      	movs	r3, #0
     b28:	0018      	movs	r0, r3
     b2a:	46bd      	mov	sp, r7
     b2c:	b002      	add	sp, #8
     b2e:	bd80      	pop	{r7, pc}
     b30:	20006070 	.word	0x20006070

00000b34 <_kill>:
     b34:	b580      	push	{r7, lr}
     b36:	b082      	sub	sp, #8
     b38:	af00      	add	r7, sp, #0
     b3a:	6078      	str	r0, [r7, #4]
     b3c:	6039      	str	r1, [r7, #0]
     b3e:	4b04      	ldr	r3, [pc, #16]	; (b50 <_kill+0x1c>)
     b40:	2216      	movs	r2, #22
     b42:	601a      	str	r2, [r3, #0]
     b44:	2301      	movs	r3, #1
     b46:	425b      	negs	r3, r3
     b48:	0018      	movs	r0, r3
     b4a:	46bd      	mov	sp, r7
     b4c:	b002      	add	sp, #8
     b4e:	bd80      	pop	{r7, pc}
     b50:	20006070 	.word	0x20006070

00000b54 <_link>:
     b54:	b580      	push	{r7, lr}
     b56:	b082      	sub	sp, #8
     b58:	af00      	add	r7, sp, #0
     b5a:	6078      	str	r0, [r7, #4]
     b5c:	6039      	str	r1, [r7, #0]
     b5e:	4b04      	ldr	r3, [pc, #16]	; (b70 <_link+0x1c>)
     b60:	221f      	movs	r2, #31
     b62:	601a      	str	r2, [r3, #0]
     b64:	2301      	movs	r3, #1
     b66:	425b      	negs	r3, r3
     b68:	0018      	movs	r0, r3
     b6a:	46bd      	mov	sp, r7
     b6c:	b002      	add	sp, #8
     b6e:	bd80      	pop	{r7, pc}
     b70:	20006070 	.word	0x20006070

00000b74 <_lseek>:
     b74:	b580      	push	{r7, lr}
     b76:	b084      	sub	sp, #16
     b78:	af00      	add	r7, sp, #0
     b7a:	60f8      	str	r0, [r7, #12]
     b7c:	60b9      	str	r1, [r7, #8]
     b7e:	607a      	str	r2, [r7, #4]
     b80:	2300      	movs	r3, #0
     b82:	0018      	movs	r0, r3
     b84:	46bd      	mov	sp, r7
     b86:	b004      	add	sp, #16
     b88:	bd80      	pop	{r7, pc}
     b8a:	46c0      	nop			; (mov r8, r8)

00000b8c <_sbrk>:
     b8c:	b580      	push	{r7, lr}
     b8e:	b086      	sub	sp, #24
     b90:	af00      	add	r7, sp, #0
     b92:	6078      	str	r0, [r7, #4]
     b94:	4b16      	ldr	r3, [pc, #88]	; (bf0 <_sbrk+0x64>)
     b96:	681b      	ldr	r3, [r3, #0]
     b98:	2b00      	cmp	r3, #0
     b9a:	d102      	bne.n	ba2 <_sbrk+0x16>
     b9c:	4b14      	ldr	r3, [pc, #80]	; (bf0 <_sbrk+0x64>)
     b9e:	4a15      	ldr	r2, [pc, #84]	; (bf4 <_sbrk+0x68>)
     ba0:	601a      	str	r2, [r3, #0]
     ba2:	4b13      	ldr	r3, [pc, #76]	; (bf0 <_sbrk+0x64>)
     ba4:	681b      	ldr	r3, [r3, #0]
     ba6:	617b      	str	r3, [r7, #20]
     ba8:	f3ef 8308 	mrs	r3, MSP
     bac:	60fb      	str	r3, [r7, #12]
     bae:	68fb      	ldr	r3, [r7, #12]
     bb0:	613b      	str	r3, [r7, #16]
     bb2:	4b0f      	ldr	r3, [pc, #60]	; (bf0 <_sbrk+0x64>)
     bb4:	681a      	ldr	r2, [r3, #0]
     bb6:	687b      	ldr	r3, [r7, #4]
     bb8:	18d2      	adds	r2, r2, r3
     bba:	693b      	ldr	r3, [r7, #16]
     bbc:	429a      	cmp	r2, r3
     bbe:	d90b      	bls.n	bd8 <_sbrk+0x4c>
     bc0:	4b0d      	ldr	r3, [pc, #52]	; (bf8 <_sbrk+0x6c>)
     bc2:	2219      	movs	r2, #25
     bc4:	0019      	movs	r1, r3
     bc6:	2002      	movs	r0, #2
     bc8:	f000 f86c 	bl	ca4 <_write>
     bcc:	4b0b      	ldr	r3, [pc, #44]	; (bfc <_sbrk+0x70>)
     bce:	220c      	movs	r2, #12
     bd0:	601a      	str	r2, [r3, #0]
     bd2:	2301      	movs	r3, #1
     bd4:	425b      	negs	r3, r3
     bd6:	e006      	b.n	be6 <_sbrk+0x5a>
     bd8:	4b05      	ldr	r3, [pc, #20]	; (bf0 <_sbrk+0x64>)
     bda:	681a      	ldr	r2, [r3, #0]
     bdc:	687b      	ldr	r3, [r7, #4]
     bde:	18d2      	adds	r2, r2, r3
     be0:	4b03      	ldr	r3, [pc, #12]	; (bf0 <_sbrk+0x64>)
     be2:	601a      	str	r2, [r3, #0]
     be4:	697b      	ldr	r3, [r7, #20]
     be6:	0018      	movs	r0, r3
     be8:	46bd      	mov	sp, r7
     bea:	b006      	add	sp, #24
     bec:	bd80      	pop	{r7, pc}
     bee:	46c0      	nop			; (mov r8, r8)
     bf0:	200008d4 	.word	0x200008d4
     bf4:	200060f8 	.word	0x200060f8
     bf8:	0000857c 	.word	0x0000857c
     bfc:	20006070 	.word	0x20006070

00000c00 <_read>:
     c00:	b580      	push	{r7, lr}
     c02:	b086      	sub	sp, #24
     c04:	af00      	add	r7, sp, #0
     c06:	60f8      	str	r0, [r7, #12]
     c08:	60b9      	str	r1, [r7, #8]
     c0a:	607a      	str	r2, [r7, #4]
     c0c:	2300      	movs	r3, #0
     c0e:	617b      	str	r3, [r7, #20]
     c10:	68fb      	ldr	r3, [r7, #12]
     c12:	2b00      	cmp	r3, #0
     c14:	d005      	beq.n	c22 <_read+0x22>
     c16:	4b06      	ldr	r3, [pc, #24]	; (c30 <_read+0x30>)
     c18:	2209      	movs	r2, #9
     c1a:	601a      	str	r2, [r3, #0]
     c1c:	2301      	movs	r3, #1
     c1e:	425b      	negs	r3, r3
     c20:	e001      	b.n	c26 <_read+0x26>
     c22:	46c0      	nop			; (mov r8, r8)
     c24:	697b      	ldr	r3, [r7, #20]
     c26:	0018      	movs	r0, r3
     c28:	46bd      	mov	sp, r7
     c2a:	b006      	add	sp, #24
     c2c:	bd80      	pop	{r7, pc}
     c2e:	46c0      	nop			; (mov r8, r8)
     c30:	20006070 	.word	0x20006070

00000c34 <_stat>:
     c34:	b580      	push	{r7, lr}
     c36:	b082      	sub	sp, #8
     c38:	af00      	add	r7, sp, #0
     c3a:	6078      	str	r0, [r7, #4]
     c3c:	6039      	str	r1, [r7, #0]
     c3e:	683b      	ldr	r3, [r7, #0]
     c40:	2280      	movs	r2, #128	; 0x80
     c42:	0192      	lsls	r2, r2, #6
     c44:	605a      	str	r2, [r3, #4]
     c46:	2300      	movs	r3, #0
     c48:	0018      	movs	r0, r3
     c4a:	46bd      	mov	sp, r7
     c4c:	b002      	add	sp, #8
     c4e:	bd80      	pop	{r7, pc}

00000c50 <_times>:
     c50:	b580      	push	{r7, lr}
     c52:	b082      	sub	sp, #8
     c54:	af00      	add	r7, sp, #0
     c56:	6078      	str	r0, [r7, #4]
     c58:	2301      	movs	r3, #1
     c5a:	425b      	negs	r3, r3
     c5c:	0018      	movs	r0, r3
     c5e:	46bd      	mov	sp, r7
     c60:	b002      	add	sp, #8
     c62:	bd80      	pop	{r7, pc}

00000c64 <_unlink>:
     c64:	b580      	push	{r7, lr}
     c66:	b082      	sub	sp, #8
     c68:	af00      	add	r7, sp, #0
     c6a:	6078      	str	r0, [r7, #4]
     c6c:	4b04      	ldr	r3, [pc, #16]	; (c80 <_unlink+0x1c>)
     c6e:	2202      	movs	r2, #2
     c70:	601a      	str	r2, [r3, #0]
     c72:	2301      	movs	r3, #1
     c74:	425b      	negs	r3, r3
     c76:	0018      	movs	r0, r3
     c78:	46bd      	mov	sp, r7
     c7a:	b002      	add	sp, #8
     c7c:	bd80      	pop	{r7, pc}
     c7e:	46c0      	nop			; (mov r8, r8)
     c80:	20006070 	.word	0x20006070

00000c84 <_wait>:
     c84:	b580      	push	{r7, lr}
     c86:	b082      	sub	sp, #8
     c88:	af00      	add	r7, sp, #0
     c8a:	6078      	str	r0, [r7, #4]
     c8c:	4b04      	ldr	r3, [pc, #16]	; (ca0 <_wait+0x1c>)
     c8e:	220a      	movs	r2, #10
     c90:	601a      	str	r2, [r3, #0]
     c92:	2301      	movs	r3, #1
     c94:	425b      	negs	r3, r3
     c96:	0018      	movs	r0, r3
     c98:	46bd      	mov	sp, r7
     c9a:	b002      	add	sp, #8
     c9c:	bd80      	pop	{r7, pc}
     c9e:	46c0      	nop			; (mov r8, r8)
     ca0:	20006070 	.word	0x20006070

00000ca4 <_write>:
     ca4:	b580      	push	{r7, lr}
     ca6:	b086      	sub	sp, #24
     ca8:	af00      	add	r7, sp, #0
     caa:	60f8      	str	r0, [r7, #12]
     cac:	60b9      	str	r1, [r7, #8]
     cae:	607a      	str	r2, [r7, #4]
     cb0:	68fb      	ldr	r3, [r7, #12]
     cb2:	2b01      	cmp	r3, #1
     cb4:	d002      	beq.n	cbc <_write+0x18>
     cb6:	2b02      	cmp	r3, #2
     cb8:	d00b      	beq.n	cd2 <_write+0x2e>
     cba:	e015      	b.n	ce8 <_write+0x44>
     cbc:	2300      	movs	r3, #0
     cbe:	617b      	str	r3, [r7, #20]
     cc0:	e002      	b.n	cc8 <_write+0x24>
     cc2:	697b      	ldr	r3, [r7, #20]
     cc4:	3301      	adds	r3, #1
     cc6:	617b      	str	r3, [r7, #20]
     cc8:	697a      	ldr	r2, [r7, #20]
     cca:	687b      	ldr	r3, [r7, #4]
     ccc:	429a      	cmp	r2, r3
     cce:	dbf8      	blt.n	cc2 <_write+0x1e>
     cd0:	e010      	b.n	cf4 <_write+0x50>
     cd2:	2300      	movs	r3, #0
     cd4:	617b      	str	r3, [r7, #20]
     cd6:	e002      	b.n	cde <_write+0x3a>
     cd8:	697b      	ldr	r3, [r7, #20]
     cda:	3301      	adds	r3, #1
     cdc:	617b      	str	r3, [r7, #20]
     cde:	697a      	ldr	r2, [r7, #20]
     ce0:	687b      	ldr	r3, [r7, #4]
     ce2:	429a      	cmp	r2, r3
     ce4:	dbf8      	blt.n	cd8 <_write+0x34>
     ce6:	e005      	b.n	cf4 <_write+0x50>
     ce8:	4b05      	ldr	r3, [pc, #20]	; (d00 <_write+0x5c>)
     cea:	2209      	movs	r2, #9
     cec:	601a      	str	r2, [r3, #0]
     cee:	2301      	movs	r3, #1
     cf0:	425b      	negs	r3, r3
     cf2:	e000      	b.n	cf6 <_write+0x52>
     cf4:	687b      	ldr	r3, [r7, #4]
     cf6:	0018      	movs	r0, r3
     cf8:	46bd      	mov	sp, r7
     cfa:	b006      	add	sp, #24
     cfc:	bd80      	pop	{r7, pc}
     cfe:	46c0      	nop			; (mov r8, r8)
     d00:	20006070 	.word	0x20006070

00000d04 <_init>:
     d04:	b580      	push	{r7, lr}
     d06:	af00      	add	r7, sp, #0
     d08:	46c0      	nop			; (mov r8, r8)
     d0a:	46bd      	mov	sp, r7
     d0c:	bd80      	pop	{r7, pc}
     d0e:	46c0      	nop			; (mov r8, r8)

00000d10 <_fini>:
     d10:	b580      	push	{r7, lr}
     d12:	af00      	add	r7, sp, #0
     d14:	46c0      	nop			; (mov r8, r8)
     d16:	46bd      	mov	sp, r7
     d18:	bd80      	pop	{r7, pc}
     d1a:	46c0      	nop			; (mov r8, r8)

00000d1c <__NVIC_EnableIRQ>:
     d1c:	b580      	push	{r7, lr}
     d1e:	b082      	sub	sp, #8
     d20:	af00      	add	r7, sp, #0
     d22:	0002      	movs	r2, r0
     d24:	1dfb      	adds	r3, r7, #7
     d26:	701a      	strb	r2, [r3, #0]
     d28:	1dfb      	adds	r3, r7, #7
     d2a:	781b      	ldrb	r3, [r3, #0]
     d2c:	2b7f      	cmp	r3, #127	; 0x7f
     d2e:	d809      	bhi.n	d44 <__NVIC_EnableIRQ+0x28>
     d30:	4b06      	ldr	r3, [pc, #24]	; (d4c <__NVIC_EnableIRQ+0x30>)
     d32:	1dfa      	adds	r2, r7, #7
     d34:	7812      	ldrb	r2, [r2, #0]
     d36:	0011      	movs	r1, r2
     d38:	221f      	movs	r2, #31
     d3a:	400a      	ands	r2, r1
     d3c:	2101      	movs	r1, #1
     d3e:	4091      	lsls	r1, r2
     d40:	000a      	movs	r2, r1
     d42:	601a      	str	r2, [r3, #0]
     d44:	46c0      	nop			; (mov r8, r8)
     d46:	46bd      	mov	sp, r7
     d48:	b002      	add	sp, #8
     d4a:	bd80      	pop	{r7, pc}
     d4c:	e000e100 	.word	0xe000e100

00000d50 <__NVIC_DisableIRQ>:
     d50:	b580      	push	{r7, lr}
     d52:	b082      	sub	sp, #8
     d54:	af00      	add	r7, sp, #0
     d56:	0002      	movs	r2, r0
     d58:	1dfb      	adds	r3, r7, #7
     d5a:	701a      	strb	r2, [r3, #0]
     d5c:	1dfb      	adds	r3, r7, #7
     d5e:	781b      	ldrb	r3, [r3, #0]
     d60:	2b7f      	cmp	r3, #127	; 0x7f
     d62:	d80e      	bhi.n	d82 <__NVIC_DisableIRQ+0x32>
     d64:	4909      	ldr	r1, [pc, #36]	; (d8c <__NVIC_DisableIRQ+0x3c>)
     d66:	1dfb      	adds	r3, r7, #7
     d68:	781b      	ldrb	r3, [r3, #0]
     d6a:	001a      	movs	r2, r3
     d6c:	231f      	movs	r3, #31
     d6e:	4013      	ands	r3, r2
     d70:	2201      	movs	r2, #1
     d72:	409a      	lsls	r2, r3
     d74:	0013      	movs	r3, r2
     d76:	2280      	movs	r2, #128	; 0x80
     d78:	508b      	str	r3, [r1, r2]
     d7a:	f3bf 8f4f 	dsb	sy
     d7e:	f3bf 8f6f 	isb	sy
     d82:	46c0      	nop			; (mov r8, r8)
     d84:	46bd      	mov	sp, r7
     d86:	b002      	add	sp, #8
     d88:	bd80      	pop	{r7, pc}
     d8a:	46c0      	nop			; (mov r8, r8)
     d8c:	e000e100 	.word	0xe000e100

00000d90 <mdb232_init>:
     d90:	b580      	push	{r7, lr}
     d92:	af00      	add	r7, sp, #0
     d94:	4b15      	ldr	r3, [pc, #84]	; (dec <mdb232_init+0x5c>)
     d96:	229c      	movs	r2, #156	; 0x9c
     d98:	0052      	lsls	r2, r2, #1
     d9a:	625a      	str	r2, [r3, #36]	; 0x24
     d9c:	4b13      	ldr	r3, [pc, #76]	; (dec <mdb232_init+0x5c>)
     d9e:	2220      	movs	r2, #32
     da0:	629a      	str	r2, [r3, #40]	; 0x28
     da2:	4b12      	ldr	r3, [pc, #72]	; (dec <mdb232_init+0x5c>)
     da4:	4a11      	ldr	r2, [pc, #68]	; (dec <mdb232_init+0x5c>)
     da6:	6b52      	ldr	r2, [r2, #52]	; 0x34
     da8:	213f      	movs	r1, #63	; 0x3f
     daa:	438a      	bics	r2, r1
     dac:	635a      	str	r2, [r3, #52]	; 0x34
     dae:	4b0f      	ldr	r3, [pc, #60]	; (dec <mdb232_init+0x5c>)
     db0:	4a0e      	ldr	r2, [pc, #56]	; (dec <mdb232_init+0x5c>)
     db2:	6ad2      	ldr	r2, [r2, #44]	; 0x2c
     db4:	2110      	movs	r1, #16
     db6:	430a      	orrs	r2, r1
     db8:	62da      	str	r2, [r3, #44]	; 0x2c
     dba:	4b0c      	ldr	r3, [pc, #48]	; (dec <mdb232_init+0x5c>)
     dbc:	4a0b      	ldr	r2, [pc, #44]	; (dec <mdb232_init+0x5c>)
     dbe:	6ad2      	ldr	r2, [r2, #44]	; 0x2c
     dc0:	2160      	movs	r1, #96	; 0x60
     dc2:	430a      	orrs	r2, r1
     dc4:	62da      	str	r2, [r3, #44]	; 0x2c
     dc6:	4b09      	ldr	r3, [pc, #36]	; (dec <mdb232_init+0x5c>)
     dc8:	4a08      	ldr	r2, [pc, #32]	; (dec <mdb232_init+0x5c>)
     dca:	6b12      	ldr	r2, [r2, #48]	; 0x30
     dcc:	4908      	ldr	r1, [pc, #32]	; (df0 <mdb232_init+0x60>)
     dce:	430a      	orrs	r2, r1
     dd0:	631a      	str	r2, [r3, #48]	; 0x30
     dd2:	4b06      	ldr	r3, [pc, #24]	; (dec <mdb232_init+0x5c>)
     dd4:	4a05      	ldr	r2, [pc, #20]	; (dec <mdb232_init+0x5c>)
     dd6:	6b92      	ldr	r2, [r2, #56]	; 0x38
     dd8:	2140      	movs	r1, #64	; 0x40
     dda:	430a      	orrs	r2, r1
     ddc:	639a      	str	r2, [r3, #56]	; 0x38
     dde:	2006      	movs	r0, #6
     de0:	f7ff ff9c 	bl	d1c <__NVIC_EnableIRQ>
     de4:	46c0      	nop			; (mov r8, r8)
     de6:	46bd      	mov	sp, r7
     de8:	bd80      	pop	{r7, pc}
     dea:	46c0      	nop			; (mov r8, r8)
     dec:	40030000 	.word	0x40030000
     df0:	00000301 	.word	0x00000301

00000df4 <mdb232_send>:
     df4:	b580      	push	{r7, lr}
     df6:	b084      	sub	sp, #16
     df8:	af00      	add	r7, sp, #0
     dfa:	6078      	str	r0, [r7, #4]
     dfc:	6039      	str	r1, [r7, #0]
     dfe:	2300      	movs	r3, #0
     e00:	60fb      	str	r3, [r7, #12]
     e02:	e00e      	b.n	e22 <mdb232_send+0x2e>
     e04:	46c0      	nop			; (mov r8, r8)
     e06:	4b0e      	ldr	r3, [pc, #56]	; (e40 <mdb232_send+0x4c>)
     e08:	699b      	ldr	r3, [r3, #24]
     e0a:	2220      	movs	r2, #32
     e0c:	4013      	ands	r3, r2
     e0e:	d1fa      	bne.n	e06 <mdb232_send+0x12>
     e10:	4a0b      	ldr	r2, [pc, #44]	; (e40 <mdb232_send+0x4c>)
     e12:	687b      	ldr	r3, [r7, #4]
     e14:	1c59      	adds	r1, r3, #1
     e16:	6079      	str	r1, [r7, #4]
     e18:	781b      	ldrb	r3, [r3, #0]
     e1a:	6013      	str	r3, [r2, #0]
     e1c:	68fb      	ldr	r3, [r7, #12]
     e1e:	3301      	adds	r3, #1
     e20:	60fb      	str	r3, [r7, #12]
     e22:	68fa      	ldr	r2, [r7, #12]
     e24:	683b      	ldr	r3, [r7, #0]
     e26:	429a      	cmp	r2, r3
     e28:	dbec      	blt.n	e04 <mdb232_send+0x10>
     e2a:	46c0      	nop			; (mov r8, r8)
     e2c:	4b04      	ldr	r3, [pc, #16]	; (e40 <mdb232_send+0x4c>)
     e2e:	699b      	ldr	r3, [r3, #24]
     e30:	2208      	movs	r2, #8
     e32:	4013      	ands	r3, r2
     e34:	d1fa      	bne.n	e2c <mdb232_send+0x38>
     e36:	683b      	ldr	r3, [r7, #0]
     e38:	0018      	movs	r0, r3
     e3a:	46bd      	mov	sp, r7
     e3c:	b004      	add	sp, #16
     e3e:	bd80      	pop	{r7, pc}
     e40:	40030000 	.word	0x40030000

00000e44 <mdb232_read_inputregs>:
     e44:	b590      	push	{r4, r7, lr}
     e46:	b085      	sub	sp, #20
     e48:	af00      	add	r7, sp, #0
     e4a:	0004      	movs	r4, r0
     e4c:	0008      	movs	r0, r1
     e4e:	0011      	movs	r1, r2
     e50:	1dfb      	adds	r3, r7, #7
     e52:	1c22      	adds	r2, r4, #0
     e54:	701a      	strb	r2, [r3, #0]
     e56:	1d3b      	adds	r3, r7, #4
     e58:	1c02      	adds	r2, r0, #0
     e5a:	801a      	strh	r2, [r3, #0]
     e5c:	1cbb      	adds	r3, r7, #2
     e5e:	1c0a      	adds	r2, r1, #0
     e60:	801a      	strh	r2, [r3, #0]
     e62:	4b28      	ldr	r3, [pc, #160]	; (f04 <mdb232_read_inputregs+0xc0>)
     e64:	60fb      	str	r3, [r7, #12]
     e66:	68fb      	ldr	r3, [r7, #12]
     e68:	1c5a      	adds	r2, r3, #1
     e6a:	60fa      	str	r2, [r7, #12]
     e6c:	1dfa      	adds	r2, r7, #7
     e6e:	7812      	ldrb	r2, [r2, #0]
     e70:	701a      	strb	r2, [r3, #0]
     e72:	68fb      	ldr	r3, [r7, #12]
     e74:	1c5a      	adds	r2, r3, #1
     e76:	60fa      	str	r2, [r7, #12]
     e78:	2204      	movs	r2, #4
     e7a:	701a      	strb	r2, [r3, #0]
     e7c:	68fb      	ldr	r3, [r7, #12]
     e7e:	1c5a      	adds	r2, r3, #1
     e80:	60fa      	str	r2, [r7, #12]
     e82:	1d3a      	adds	r2, r7, #4
     e84:	8812      	ldrh	r2, [r2, #0]
     e86:	0a12      	lsrs	r2, r2, #8
     e88:	b292      	uxth	r2, r2
     e8a:	b2d2      	uxtb	r2, r2
     e8c:	701a      	strb	r2, [r3, #0]
     e8e:	68fb      	ldr	r3, [r7, #12]
     e90:	1c5a      	adds	r2, r3, #1
     e92:	60fa      	str	r2, [r7, #12]
     e94:	1d3a      	adds	r2, r7, #4
     e96:	8812      	ldrh	r2, [r2, #0]
     e98:	b2d2      	uxtb	r2, r2
     e9a:	701a      	strb	r2, [r3, #0]
     e9c:	68fb      	ldr	r3, [r7, #12]
     e9e:	1c5a      	adds	r2, r3, #1
     ea0:	60fa      	str	r2, [r7, #12]
     ea2:	1cba      	adds	r2, r7, #2
     ea4:	8812      	ldrh	r2, [r2, #0]
     ea6:	0a12      	lsrs	r2, r2, #8
     ea8:	b292      	uxth	r2, r2
     eaa:	b2d2      	uxtb	r2, r2
     eac:	701a      	strb	r2, [r3, #0]
     eae:	68fb      	ldr	r3, [r7, #12]
     eb0:	1c5a      	adds	r2, r3, #1
     eb2:	60fa      	str	r2, [r7, #12]
     eb4:	1cba      	adds	r2, r7, #2
     eb6:	8812      	ldrh	r2, [r2, #0]
     eb8:	b2d2      	uxtb	r2, r2
     eba:	701a      	strb	r2, [r3, #0]
     ebc:	230a      	movs	r3, #10
     ebe:	18fc      	adds	r4, r7, r3
     ec0:	4b10      	ldr	r3, [pc, #64]	; (f04 <mdb232_read_inputregs+0xc0>)
     ec2:	2106      	movs	r1, #6
     ec4:	0018      	movs	r0, r3
     ec6:	f002 f8ef 	bl	30a8 <crc16>
     eca:	0003      	movs	r3, r0
     ecc:	8023      	strh	r3, [r4, #0]
     ece:	68fb      	ldr	r3, [r7, #12]
     ed0:	1c5a      	adds	r2, r3, #1
     ed2:	60fa      	str	r2, [r7, #12]
     ed4:	220a      	movs	r2, #10
     ed6:	18ba      	adds	r2, r7, r2
     ed8:	8812      	ldrh	r2, [r2, #0]
     eda:	b2d2      	uxtb	r2, r2
     edc:	701a      	strb	r2, [r3, #0]
     ede:	68fb      	ldr	r3, [r7, #12]
     ee0:	1c5a      	adds	r2, r3, #1
     ee2:	60fa      	str	r2, [r7, #12]
     ee4:	220a      	movs	r2, #10
     ee6:	18ba      	adds	r2, r7, r2
     ee8:	8812      	ldrh	r2, [r2, #0]
     eea:	0a12      	lsrs	r2, r2, #8
     eec:	b292      	uxth	r2, r2
     eee:	b2d2      	uxtb	r2, r2
     ef0:	701a      	strb	r2, [r3, #0]
     ef2:	4b04      	ldr	r3, [pc, #16]	; (f04 <mdb232_read_inputregs+0xc0>)
     ef4:	2108      	movs	r1, #8
     ef6:	0018      	movs	r0, r3
     ef8:	f7ff ff7c 	bl	df4 <mdb232_send>
     efc:	46c0      	nop			; (mov r8, r8)
     efe:	46bd      	mov	sp, r7
     f00:	b005      	add	sp, #20
     f02:	bd90      	pop	{r4, r7, pc}
     f04:	200008e8 	.word	0x200008e8

00000f08 <mdb232_readregs>:
     f08:	b590      	push	{r4, r7, lr}
     f0a:	b085      	sub	sp, #20
     f0c:	af00      	add	r7, sp, #0
     f0e:	0004      	movs	r4, r0
     f10:	0008      	movs	r0, r1
     f12:	0011      	movs	r1, r2
     f14:	1dfb      	adds	r3, r7, #7
     f16:	1c22      	adds	r2, r4, #0
     f18:	701a      	strb	r2, [r3, #0]
     f1a:	1d3b      	adds	r3, r7, #4
     f1c:	1c02      	adds	r2, r0, #0
     f1e:	801a      	strh	r2, [r3, #0]
     f20:	1cbb      	adds	r3, r7, #2
     f22:	1c0a      	adds	r2, r1, #0
     f24:	801a      	strh	r2, [r3, #0]
     f26:	4b28      	ldr	r3, [pc, #160]	; (fc8 <mdb232_readregs+0xc0>)
     f28:	60fb      	str	r3, [r7, #12]
     f2a:	68fb      	ldr	r3, [r7, #12]
     f2c:	1c5a      	adds	r2, r3, #1
     f2e:	60fa      	str	r2, [r7, #12]
     f30:	1dfa      	adds	r2, r7, #7
     f32:	7812      	ldrb	r2, [r2, #0]
     f34:	701a      	strb	r2, [r3, #0]
     f36:	68fb      	ldr	r3, [r7, #12]
     f38:	1c5a      	adds	r2, r3, #1
     f3a:	60fa      	str	r2, [r7, #12]
     f3c:	2203      	movs	r2, #3
     f3e:	701a      	strb	r2, [r3, #0]
     f40:	68fb      	ldr	r3, [r7, #12]
     f42:	1c5a      	adds	r2, r3, #1
     f44:	60fa      	str	r2, [r7, #12]
     f46:	1d3a      	adds	r2, r7, #4
     f48:	8812      	ldrh	r2, [r2, #0]
     f4a:	0a12      	lsrs	r2, r2, #8
     f4c:	b292      	uxth	r2, r2
     f4e:	b2d2      	uxtb	r2, r2
     f50:	701a      	strb	r2, [r3, #0]
     f52:	68fb      	ldr	r3, [r7, #12]
     f54:	1c5a      	adds	r2, r3, #1
     f56:	60fa      	str	r2, [r7, #12]
     f58:	1d3a      	adds	r2, r7, #4
     f5a:	8812      	ldrh	r2, [r2, #0]
     f5c:	b2d2      	uxtb	r2, r2
     f5e:	701a      	strb	r2, [r3, #0]
     f60:	68fb      	ldr	r3, [r7, #12]
     f62:	1c5a      	adds	r2, r3, #1
     f64:	60fa      	str	r2, [r7, #12]
     f66:	1cba      	adds	r2, r7, #2
     f68:	8812      	ldrh	r2, [r2, #0]
     f6a:	0a12      	lsrs	r2, r2, #8
     f6c:	b292      	uxth	r2, r2
     f6e:	b2d2      	uxtb	r2, r2
     f70:	701a      	strb	r2, [r3, #0]
     f72:	68fb      	ldr	r3, [r7, #12]
     f74:	1c5a      	adds	r2, r3, #1
     f76:	60fa      	str	r2, [r7, #12]
     f78:	1cba      	adds	r2, r7, #2
     f7a:	8812      	ldrh	r2, [r2, #0]
     f7c:	b2d2      	uxtb	r2, r2
     f7e:	701a      	strb	r2, [r3, #0]
     f80:	230a      	movs	r3, #10
     f82:	18fc      	adds	r4, r7, r3
     f84:	4b10      	ldr	r3, [pc, #64]	; (fc8 <mdb232_readregs+0xc0>)
     f86:	2106      	movs	r1, #6
     f88:	0018      	movs	r0, r3
     f8a:	f002 f88d 	bl	30a8 <crc16>
     f8e:	0003      	movs	r3, r0
     f90:	8023      	strh	r3, [r4, #0]
     f92:	68fb      	ldr	r3, [r7, #12]
     f94:	1c5a      	adds	r2, r3, #1
     f96:	60fa      	str	r2, [r7, #12]
     f98:	220a      	movs	r2, #10
     f9a:	18ba      	adds	r2, r7, r2
     f9c:	8812      	ldrh	r2, [r2, #0]
     f9e:	b2d2      	uxtb	r2, r2
     fa0:	701a      	strb	r2, [r3, #0]
     fa2:	68fb      	ldr	r3, [r7, #12]
     fa4:	1c5a      	adds	r2, r3, #1
     fa6:	60fa      	str	r2, [r7, #12]
     fa8:	220a      	movs	r2, #10
     faa:	18ba      	adds	r2, r7, r2
     fac:	8812      	ldrh	r2, [r2, #0]
     fae:	0a12      	lsrs	r2, r2, #8
     fb0:	b292      	uxth	r2, r2
     fb2:	b2d2      	uxtb	r2, r2
     fb4:	701a      	strb	r2, [r3, #0]
     fb6:	4b04      	ldr	r3, [pc, #16]	; (fc8 <mdb232_readregs+0xc0>)
     fb8:	2108      	movs	r1, #8
     fba:	0018      	movs	r0, r3
     fbc:	f7ff ff1a 	bl	df4 <mdb232_send>
     fc0:	46c0      	nop			; (mov r8, r8)
     fc2:	46bd      	mov	sp, r7
     fc4:	b005      	add	sp, #20
     fc6:	bd90      	pop	{r4, r7, pc}
     fc8:	200008e8 	.word	0x200008e8

00000fcc <mdb232_bikm_get_torque>:
     fcc:	b580      	push	{r7, lr}
     fce:	b084      	sub	sp, #16
     fd0:	af00      	add	r7, sp, #0
     fd2:	4b27      	ldr	r3, [pc, #156]	; (1070 <mdb232_bikm_get_torque+0xa4>)
     fd4:	60fb      	str	r3, [r7, #12]
     fd6:	2006      	movs	r0, #6
     fd8:	f7ff feba 	bl	d50 <__NVIC_DisableIRQ>
     fdc:	4b25      	ldr	r3, [pc, #148]	; (1074 <mdb232_bikm_get_torque+0xa8>)
     fde:	681b      	ldr	r3, [r3, #0]
     fe0:	2b00      	cmp	r3, #0
     fe2:	d03c      	beq.n	105e <mdb232_bikm_get_torque+0x92>
     fe4:	68fb      	ldr	r3, [r7, #12]
     fe6:	1c5a      	adds	r2, r3, #1
     fe8:	60fa      	str	r2, [r7, #12]
     fea:	781b      	ldrb	r3, [r3, #0]
     fec:	041b      	lsls	r3, r3, #16
     fee:	60bb      	str	r3, [r7, #8]
     ff0:	68fb      	ldr	r3, [r7, #12]
     ff2:	1c5a      	adds	r2, r3, #1
     ff4:	60fa      	str	r2, [r7, #12]
     ff6:	781b      	ldrb	r3, [r3, #0]
     ff8:	061b      	lsls	r3, r3, #24
     ffa:	001a      	movs	r2, r3
     ffc:	68bb      	ldr	r3, [r7, #8]
     ffe:	4313      	orrs	r3, r2
    1000:	60bb      	str	r3, [r7, #8]
    1002:	68fb      	ldr	r3, [r7, #12]
    1004:	1c5a      	adds	r2, r3, #1
    1006:	60fa      	str	r2, [r7, #12]
    1008:	781b      	ldrb	r3, [r3, #0]
    100a:	001a      	movs	r2, r3
    100c:	68bb      	ldr	r3, [r7, #8]
    100e:	4313      	orrs	r3, r2
    1010:	60bb      	str	r3, [r7, #8]
    1012:	68fb      	ldr	r3, [r7, #12]
    1014:	781b      	ldrb	r3, [r3, #0]
    1016:	021b      	lsls	r3, r3, #8
    1018:	001a      	movs	r2, r3
    101a:	68bb      	ldr	r3, [r7, #8]
    101c:	4313      	orrs	r3, r2
    101e:	60bb      	str	r3, [r7, #8]
    1020:	2006      	movs	r0, #6
    1022:	f7ff fe7b 	bl	d1c <__NVIC_EnableIRQ>
    1026:	68bb      	ldr	r3, [r7, #8]
    1028:	0ddb      	lsrs	r3, r3, #23
    102a:	22ff      	movs	r2, #255	; 0xff
    102c:	4013      	ands	r3, r2
    102e:	3b7f      	subs	r3, #127	; 0x7f
    1030:	607b      	str	r3, [r7, #4]
    1032:	68bb      	ldr	r3, [r7, #8]
    1034:	025b      	lsls	r3, r3, #9
    1036:	0a5b      	lsrs	r3, r3, #9
    1038:	2280      	movs	r2, #128	; 0x80
    103a:	0412      	lsls	r2, r2, #16
    103c:	4313      	orrs	r3, r2
    103e:	603b      	str	r3, [r7, #0]
    1040:	687b      	ldr	r3, [r7, #4]
    1042:	220e      	movs	r2, #14
    1044:	1ad3      	subs	r3, r2, r3
    1046:	2201      	movs	r2, #1
    1048:	409a      	lsls	r2, r3
    104a:	0013      	movs	r3, r2
    104c:	001a      	movs	r2, r3
    104e:	683b      	ldr	r3, [r7, #0]
    1050:	18d2      	adds	r2, r2, r3
    1052:	687b      	ldr	r3, [r7, #4]
    1054:	210f      	movs	r1, #15
    1056:	1acb      	subs	r3, r1, r3
    1058:	40da      	lsrs	r2, r3
    105a:	0013      	movs	r3, r2
    105c:	e003      	b.n	1066 <mdb232_bikm_get_torque+0x9a>
    105e:	2006      	movs	r0, #6
    1060:	f7ff fe5c 	bl	d1c <__NVIC_EnableIRQ>
    1064:	2300      	movs	r3, #0
    1066:	0018      	movs	r0, r3
    1068:	46bd      	mov	sp, r7
    106a:	b004      	add	sp, #16
    106c:	bd80      	pop	{r7, pc}
    106e:	46c0      	nop			; (mov r8, r8)
    1070:	200008db 	.word	0x200008db
    1074:	200008f8 	.word	0x200008f8

00001078 <UART1_Handler>:
    1078:	b580      	push	{r7, lr}
    107a:	b082      	sub	sp, #8
    107c:	af00      	add	r7, sp, #0
    107e:	4b16      	ldr	r3, [pc, #88]	; (10d8 <UART1_Handler+0x60>)
    1080:	2200      	movs	r2, #0
    1082:	601a      	str	r2, [r3, #0]
    1084:	4b15      	ldr	r3, [pc, #84]	; (10dc <UART1_Handler+0x64>)
    1086:	6c1b      	ldr	r3, [r3, #64]	; 0x40
    1088:	2240      	movs	r2, #64	; 0x40
    108a:	4013      	ands	r3, r2
    108c:	d016      	beq.n	10bc <UART1_Handler+0x44>
    108e:	4b14      	ldr	r3, [pc, #80]	; (10e0 <UART1_Handler+0x68>)
    1090:	603b      	str	r3, [r7, #0]
    1092:	2300      	movs	r3, #0
    1094:	607b      	str	r3, [r7, #4]
    1096:	e009      	b.n	10ac <UART1_Handler+0x34>
    1098:	683b      	ldr	r3, [r7, #0]
    109a:	1c5a      	adds	r2, r3, #1
    109c:	603a      	str	r2, [r7, #0]
    109e:	4a0f      	ldr	r2, [pc, #60]	; (10dc <UART1_Handler+0x64>)
    10a0:	6812      	ldr	r2, [r2, #0]
    10a2:	b2d2      	uxtb	r2, r2
    10a4:	701a      	strb	r2, [r3, #0]
    10a6:	687b      	ldr	r3, [r7, #4]
    10a8:	3301      	adds	r3, #1
    10aa:	607b      	str	r3, [r7, #4]
    10ac:	687b      	ldr	r3, [r7, #4]
    10ae:	2b0f      	cmp	r3, #15
    10b0:	dc04      	bgt.n	10bc <UART1_Handler+0x44>
    10b2:	4b0a      	ldr	r3, [pc, #40]	; (10dc <UART1_Handler+0x64>)
    10b4:	699b      	ldr	r3, [r3, #24]
    10b6:	2210      	movs	r2, #16
    10b8:	4013      	ands	r3, r2
    10ba:	d0ed      	beq.n	1098 <UART1_Handler+0x20>
    10bc:	4b06      	ldr	r3, [pc, #24]	; (10d8 <UART1_Handler+0x60>)
    10be:	687a      	ldr	r2, [r7, #4]
    10c0:	601a      	str	r2, [r3, #0]
    10c2:	4b08      	ldr	r3, [pc, #32]	; (10e4 <UART1_Handler+0x6c>)
    10c4:	681b      	ldr	r3, [r3, #0]
    10c6:	2102      	movs	r1, #2
    10c8:	0018      	movs	r0, r3
    10ca:	f005 f8cd 	bl	6268 <osSignalSet>
    10ce:	46c0      	nop			; (mov r8, r8)
    10d0:	46bd      	mov	sp, r7
    10d2:	b002      	add	sp, #8
    10d4:	bd80      	pop	{r7, pc}
    10d6:	46c0      	nop			; (mov r8, r8)
    10d8:	200008f8 	.word	0x200008f8
    10dc:	40030000 	.word	0x40030000
    10e0:	200008d8 	.word	0x200008d8
    10e4:	20000860 	.word	0x20000860

000010e8 <xputc>:
    10e8:	b580      	push	{r7, lr}
    10ea:	b082      	sub	sp, #8
    10ec:	af00      	add	r7, sp, #0
    10ee:	0002      	movs	r2, r0
    10f0:	1dfb      	adds	r3, r7, #7
    10f2:	701a      	strb	r2, [r3, #0]
    10f4:	1dfb      	adds	r3, r7, #7
    10f6:	781b      	ldrb	r3, [r3, #0]
    10f8:	2b0a      	cmp	r3, #10
    10fa:	d102      	bne.n	1102 <xputc+0x1a>
    10fc:	200d      	movs	r0, #13
    10fe:	f7ff fff3 	bl	10e8 <xputc>
    1102:	4b0d      	ldr	r3, [pc, #52]	; (1138 <xputc+0x50>)
    1104:	681b      	ldr	r3, [r3, #0]
    1106:	2b00      	cmp	r3, #0
    1108:	d008      	beq.n	111c <xputc+0x34>
    110a:	4b0b      	ldr	r3, [pc, #44]	; (1138 <xputc+0x50>)
    110c:	681b      	ldr	r3, [r3, #0]
    110e:	1c59      	adds	r1, r3, #1
    1110:	4a09      	ldr	r2, [pc, #36]	; (1138 <xputc+0x50>)
    1112:	6011      	str	r1, [r2, #0]
    1114:	1dfa      	adds	r2, r7, #7
    1116:	7812      	ldrb	r2, [r2, #0]
    1118:	701a      	strb	r2, [r3, #0]
    111a:	e009      	b.n	1130 <xputc+0x48>
    111c:	4b07      	ldr	r3, [pc, #28]	; (113c <xputc+0x54>)
    111e:	681b      	ldr	r3, [r3, #0]
    1120:	2b00      	cmp	r3, #0
    1122:	d005      	beq.n	1130 <xputc+0x48>
    1124:	4b05      	ldr	r3, [pc, #20]	; (113c <xputc+0x54>)
    1126:	681b      	ldr	r3, [r3, #0]
    1128:	1dfa      	adds	r2, r7, #7
    112a:	7812      	ldrb	r2, [r2, #0]
    112c:	0010      	movs	r0, r2
    112e:	4798      	blx	r3
    1130:	46bd      	mov	sp, r7
    1132:	b002      	add	sp, #8
    1134:	bd80      	pop	{r7, pc}
    1136:	46c0      	nop			; (mov r8, r8)
    1138:	20000900 	.word	0x20000900
    113c:	200008fc 	.word	0x200008fc

00001140 <xputs>:
    1140:	b580      	push	{r7, lr}
    1142:	b082      	sub	sp, #8
    1144:	af00      	add	r7, sp, #0
    1146:	6078      	str	r0, [r7, #4]
    1148:	e006      	b.n	1158 <xputs+0x18>
    114a:	687b      	ldr	r3, [r7, #4]
    114c:	1c5a      	adds	r2, r3, #1
    114e:	607a      	str	r2, [r7, #4]
    1150:	781b      	ldrb	r3, [r3, #0]
    1152:	0018      	movs	r0, r3
    1154:	f7ff ffc8 	bl	10e8 <xputc>
    1158:	687b      	ldr	r3, [r7, #4]
    115a:	781b      	ldrb	r3, [r3, #0]
    115c:	2b00      	cmp	r3, #0
    115e:	d1f4      	bne.n	114a <xputs+0xa>
    1160:	46c0      	nop			; (mov r8, r8)
    1162:	46bd      	mov	sp, r7
    1164:	b002      	add	sp, #8
    1166:	bd80      	pop	{r7, pc}

00001168 <xfputs>:
    1168:	b580      	push	{r7, lr}
    116a:	b084      	sub	sp, #16
    116c:	af00      	add	r7, sp, #0
    116e:	6078      	str	r0, [r7, #4]
    1170:	6039      	str	r1, [r7, #0]
    1172:	4b0c      	ldr	r3, [pc, #48]	; (11a4 <xfputs+0x3c>)
    1174:	681b      	ldr	r3, [r3, #0]
    1176:	60fb      	str	r3, [r7, #12]
    1178:	4b0a      	ldr	r3, [pc, #40]	; (11a4 <xfputs+0x3c>)
    117a:	687a      	ldr	r2, [r7, #4]
    117c:	601a      	str	r2, [r3, #0]
    117e:	e006      	b.n	118e <xfputs+0x26>
    1180:	683b      	ldr	r3, [r7, #0]
    1182:	1c5a      	adds	r2, r3, #1
    1184:	603a      	str	r2, [r7, #0]
    1186:	781b      	ldrb	r3, [r3, #0]
    1188:	0018      	movs	r0, r3
    118a:	f7ff ffad 	bl	10e8 <xputc>
    118e:	683b      	ldr	r3, [r7, #0]
    1190:	781b      	ldrb	r3, [r3, #0]
    1192:	2b00      	cmp	r3, #0
    1194:	d1f4      	bne.n	1180 <xfputs+0x18>
    1196:	4b03      	ldr	r3, [pc, #12]	; (11a4 <xfputs+0x3c>)
    1198:	68fa      	ldr	r2, [r7, #12]
    119a:	601a      	str	r2, [r3, #0]
    119c:	46c0      	nop			; (mov r8, r8)
    119e:	46bd      	mov	sp, r7
    11a0:	b004      	add	sp, #16
    11a2:	bd80      	pop	{r7, pc}
    11a4:	200008fc 	.word	0x200008fc

000011a8 <xvprintf>:
    11a8:	b580      	push	{r7, lr}
    11aa:	b08e      	sub	sp, #56	; 0x38
    11ac:	af00      	add	r7, sp, #0
    11ae:	6078      	str	r0, [r7, #4]
    11b0:	6039      	str	r1, [r7, #0]
    11b2:	687b      	ldr	r3, [r7, #4]
    11b4:	1c5a      	adds	r2, r3, #1
    11b6:	607a      	str	r2, [r7, #4]
    11b8:	221f      	movs	r2, #31
    11ba:	18ba      	adds	r2, r7, r2
    11bc:	781b      	ldrb	r3, [r3, #0]
    11be:	7013      	strb	r3, [r2, #0]
    11c0:	231f      	movs	r3, #31
    11c2:	18fb      	adds	r3, r7, r3
    11c4:	781b      	ldrb	r3, [r3, #0]
    11c6:	2b00      	cmp	r3, #0
    11c8:	d100      	bne.n	11cc <xvprintf+0x24>
    11ca:	e172      	b.n	14b2 <xvprintf+0x30a>
    11cc:	231f      	movs	r3, #31
    11ce:	18fb      	adds	r3, r7, r3
    11d0:	781b      	ldrb	r3, [r3, #0]
    11d2:	2b25      	cmp	r3, #37	; 0x25
    11d4:	d006      	beq.n	11e4 <xvprintf+0x3c>
    11d6:	231f      	movs	r3, #31
    11d8:	18fb      	adds	r3, r7, r3
    11da:	781b      	ldrb	r3, [r3, #0]
    11dc:	0018      	movs	r0, r3
    11de:	f7ff ff83 	bl	10e8 <xputc>
    11e2:	e165      	b.n	14b0 <xvprintf+0x308>
    11e4:	2300      	movs	r3, #0
    11e6:	627b      	str	r3, [r7, #36]	; 0x24
    11e8:	687b      	ldr	r3, [r7, #4]
    11ea:	1c5a      	adds	r2, r3, #1
    11ec:	607a      	str	r2, [r7, #4]
    11ee:	221f      	movs	r2, #31
    11f0:	18ba      	adds	r2, r7, r2
    11f2:	781b      	ldrb	r3, [r3, #0]
    11f4:	7013      	strb	r3, [r2, #0]
    11f6:	231f      	movs	r3, #31
    11f8:	18fb      	adds	r3, r7, r3
    11fa:	781b      	ldrb	r3, [r3, #0]
    11fc:	2b30      	cmp	r3, #48	; 0x30
    11fe:	d109      	bne.n	1214 <xvprintf+0x6c>
    1200:	2301      	movs	r3, #1
    1202:	627b      	str	r3, [r7, #36]	; 0x24
    1204:	687b      	ldr	r3, [r7, #4]
    1206:	1c5a      	adds	r2, r3, #1
    1208:	607a      	str	r2, [r7, #4]
    120a:	221f      	movs	r2, #31
    120c:	18ba      	adds	r2, r7, r2
    120e:	781b      	ldrb	r3, [r3, #0]
    1210:	7013      	strb	r3, [r2, #0]
    1212:	e00d      	b.n	1230 <xvprintf+0x88>
    1214:	231f      	movs	r3, #31
    1216:	18fb      	adds	r3, r7, r3
    1218:	781b      	ldrb	r3, [r3, #0]
    121a:	2b2d      	cmp	r3, #45	; 0x2d
    121c:	d108      	bne.n	1230 <xvprintf+0x88>
    121e:	2302      	movs	r3, #2
    1220:	627b      	str	r3, [r7, #36]	; 0x24
    1222:	687b      	ldr	r3, [r7, #4]
    1224:	1c5a      	adds	r2, r3, #1
    1226:	607a      	str	r2, [r7, #4]
    1228:	221f      	movs	r2, #31
    122a:	18ba      	adds	r2, r7, r2
    122c:	781b      	ldrb	r3, [r3, #0]
    122e:	7013      	strb	r3, [r2, #0]
    1230:	2300      	movs	r3, #0
    1232:	62bb      	str	r3, [r7, #40]	; 0x28
    1234:	e012      	b.n	125c <xvprintf+0xb4>
    1236:	6aba      	ldr	r2, [r7, #40]	; 0x28
    1238:	0013      	movs	r3, r2
    123a:	009b      	lsls	r3, r3, #2
    123c:	189b      	adds	r3, r3, r2
    123e:	005b      	lsls	r3, r3, #1
    1240:	001a      	movs	r2, r3
    1242:	231f      	movs	r3, #31
    1244:	18fb      	adds	r3, r7, r3
    1246:	781b      	ldrb	r3, [r3, #0]
    1248:	18d3      	adds	r3, r2, r3
    124a:	3b30      	subs	r3, #48	; 0x30
    124c:	62bb      	str	r3, [r7, #40]	; 0x28
    124e:	687b      	ldr	r3, [r7, #4]
    1250:	1c5a      	adds	r2, r3, #1
    1252:	607a      	str	r2, [r7, #4]
    1254:	221f      	movs	r2, #31
    1256:	18ba      	adds	r2, r7, r2
    1258:	781b      	ldrb	r3, [r3, #0]
    125a:	7013      	strb	r3, [r2, #0]
    125c:	231f      	movs	r3, #31
    125e:	18fb      	adds	r3, r7, r3
    1260:	781b      	ldrb	r3, [r3, #0]
    1262:	2b2f      	cmp	r3, #47	; 0x2f
    1264:	d904      	bls.n	1270 <xvprintf+0xc8>
    1266:	231f      	movs	r3, #31
    1268:	18fb      	adds	r3, r7, r3
    126a:	781b      	ldrb	r3, [r3, #0]
    126c:	2b39      	cmp	r3, #57	; 0x39
    126e:	d9e2      	bls.n	1236 <xvprintf+0x8e>
    1270:	231f      	movs	r3, #31
    1272:	18fb      	adds	r3, r7, r3
    1274:	781b      	ldrb	r3, [r3, #0]
    1276:	2b6c      	cmp	r3, #108	; 0x6c
    1278:	d004      	beq.n	1284 <xvprintf+0xdc>
    127a:	231f      	movs	r3, #31
    127c:	18fb      	adds	r3, r7, r3
    127e:	781b      	ldrb	r3, [r3, #0]
    1280:	2b4c      	cmp	r3, #76	; 0x4c
    1282:	d10a      	bne.n	129a <xvprintf+0xf2>
    1284:	6a7b      	ldr	r3, [r7, #36]	; 0x24
    1286:	2204      	movs	r2, #4
    1288:	4313      	orrs	r3, r2
    128a:	627b      	str	r3, [r7, #36]	; 0x24
    128c:	687b      	ldr	r3, [r7, #4]
    128e:	1c5a      	adds	r2, r3, #1
    1290:	607a      	str	r2, [r7, #4]
    1292:	221f      	movs	r2, #31
    1294:	18ba      	adds	r2, r7, r2
    1296:	781b      	ldrb	r3, [r3, #0]
    1298:	7013      	strb	r3, [r2, #0]
    129a:	231f      	movs	r3, #31
    129c:	18fb      	adds	r3, r7, r3
    129e:	781b      	ldrb	r3, [r3, #0]
    12a0:	2b00      	cmp	r3, #0
    12a2:	d100      	bne.n	12a6 <xvprintf+0xfe>
    12a4:	e107      	b.n	14b6 <xvprintf+0x30e>
    12a6:	231e      	movs	r3, #30
    12a8:	18fb      	adds	r3, r7, r3
    12aa:	221f      	movs	r2, #31
    12ac:	18ba      	adds	r2, r7, r2
    12ae:	7812      	ldrb	r2, [r2, #0]
    12b0:	701a      	strb	r2, [r3, #0]
    12b2:	231e      	movs	r3, #30
    12b4:	18fb      	adds	r3, r7, r3
    12b6:	781b      	ldrb	r3, [r3, #0]
    12b8:	2b60      	cmp	r3, #96	; 0x60
    12ba:	d906      	bls.n	12ca <xvprintf+0x122>
    12bc:	231e      	movs	r3, #30
    12be:	18fb      	adds	r3, r7, r3
    12c0:	221e      	movs	r2, #30
    12c2:	18ba      	adds	r2, r7, r2
    12c4:	7812      	ldrb	r2, [r2, #0]
    12c6:	3a20      	subs	r2, #32
    12c8:	701a      	strb	r2, [r3, #0]
    12ca:	231e      	movs	r3, #30
    12cc:	18fb      	adds	r3, r7, r3
    12ce:	781b      	ldrb	r3, [r3, #0]
    12d0:	3b42      	subs	r3, #66	; 0x42
    12d2:	2b16      	cmp	r3, #22
    12d4:	d847      	bhi.n	1366 <xvprintf+0x1be>
    12d6:	009a      	lsls	r2, r3, #2
    12d8:	4b79      	ldr	r3, [pc, #484]	; (14c0 <xvprintf+0x318>)
    12da:	18d3      	adds	r3, r2, r3
    12dc:	681b      	ldr	r3, [r3, #0]
    12de:	469f      	mov	pc, r3
    12e0:	683b      	ldr	r3, [r7, #0]
    12e2:	1d1a      	adds	r2, r3, #4
    12e4:	603a      	str	r2, [r7, #0]
    12e6:	681b      	ldr	r3, [r3, #0]
    12e8:	61bb      	str	r3, [r7, #24]
    12ea:	2300      	movs	r3, #0
    12ec:	62fb      	str	r3, [r7, #44]	; 0x2c
    12ee:	e002      	b.n	12f6 <xvprintf+0x14e>
    12f0:	6afb      	ldr	r3, [r7, #44]	; 0x2c
    12f2:	3301      	adds	r3, #1
    12f4:	62fb      	str	r3, [r7, #44]	; 0x2c
    12f6:	69ba      	ldr	r2, [r7, #24]
    12f8:	6afb      	ldr	r3, [r7, #44]	; 0x2c
    12fa:	18d3      	adds	r3, r2, r3
    12fc:	781b      	ldrb	r3, [r3, #0]
    12fe:	2b00      	cmp	r3, #0
    1300:	d1f6      	bne.n	12f0 <xvprintf+0x148>
    1302:	e002      	b.n	130a <xvprintf+0x162>
    1304:	2020      	movs	r0, #32
    1306:	f7ff feef 	bl	10e8 <xputc>
    130a:	6a7b      	ldr	r3, [r7, #36]	; 0x24
    130c:	2202      	movs	r2, #2
    130e:	4013      	ands	r3, r2
    1310:	d105      	bne.n	131e <xvprintf+0x176>
    1312:	6afb      	ldr	r3, [r7, #44]	; 0x2c
    1314:	1c5a      	adds	r2, r3, #1
    1316:	62fa      	str	r2, [r7, #44]	; 0x2c
    1318:	6aba      	ldr	r2, [r7, #40]	; 0x28
    131a:	4293      	cmp	r3, r2
    131c:	d3f2      	bcc.n	1304 <xvprintf+0x15c>
    131e:	69bb      	ldr	r3, [r7, #24]
    1320:	0018      	movs	r0, r3
    1322:	f7ff ff0d 	bl	1140 <xputs>
    1326:	e002      	b.n	132e <xvprintf+0x186>
    1328:	2020      	movs	r0, #32
    132a:	f7ff fedd 	bl	10e8 <xputc>
    132e:	6afb      	ldr	r3, [r7, #44]	; 0x2c
    1330:	1c5a      	adds	r2, r3, #1
    1332:	62fa      	str	r2, [r7, #44]	; 0x2c
    1334:	6aba      	ldr	r2, [r7, #40]	; 0x28
    1336:	4293      	cmp	r3, r2
    1338:	d3f6      	bcc.n	1328 <xvprintf+0x180>
    133a:	e0b9      	b.n	14b0 <xvprintf+0x308>
    133c:	683b      	ldr	r3, [r7, #0]
    133e:	1d1a      	adds	r2, r3, #4
    1340:	603a      	str	r2, [r7, #0]
    1342:	681b      	ldr	r3, [r3, #0]
    1344:	b2db      	uxtb	r3, r3
    1346:	0018      	movs	r0, r3
    1348:	f7ff fece 	bl	10e8 <xputc>
    134c:	e0b0      	b.n	14b0 <xvprintf+0x308>
    134e:	2302      	movs	r3, #2
    1350:	637b      	str	r3, [r7, #52]	; 0x34
    1352:	e00f      	b.n	1374 <xvprintf+0x1cc>
    1354:	2308      	movs	r3, #8
    1356:	637b      	str	r3, [r7, #52]	; 0x34
    1358:	e00c      	b.n	1374 <xvprintf+0x1cc>
    135a:	230a      	movs	r3, #10
    135c:	637b      	str	r3, [r7, #52]	; 0x34
    135e:	e009      	b.n	1374 <xvprintf+0x1cc>
    1360:	2310      	movs	r3, #16
    1362:	637b      	str	r3, [r7, #52]	; 0x34
    1364:	e006      	b.n	1374 <xvprintf+0x1cc>
    1366:	231f      	movs	r3, #31
    1368:	18fb      	adds	r3, r7, r3
    136a:	781b      	ldrb	r3, [r3, #0]
    136c:	0018      	movs	r0, r3
    136e:	f7ff febb 	bl	10e8 <xputc>
    1372:	e09d      	b.n	14b0 <xvprintf+0x308>
    1374:	6a7b      	ldr	r3, [r7, #36]	; 0x24
    1376:	2204      	movs	r2, #4
    1378:	4013      	ands	r3, r2
    137a:	d004      	beq.n	1386 <xvprintf+0x1de>
    137c:	683b      	ldr	r3, [r7, #0]
    137e:	1d1a      	adds	r2, r3, #4
    1380:	603a      	str	r2, [r7, #0]
    1382:	681b      	ldr	r3, [r3, #0]
    1384:	e00d      	b.n	13a2 <xvprintf+0x1fa>
    1386:	231e      	movs	r3, #30
    1388:	18fb      	adds	r3, r7, r3
    138a:	781b      	ldrb	r3, [r3, #0]
    138c:	2b44      	cmp	r3, #68	; 0x44
    138e:	d104      	bne.n	139a <xvprintf+0x1f2>
    1390:	683b      	ldr	r3, [r7, #0]
    1392:	1d1a      	adds	r2, r3, #4
    1394:	603a      	str	r2, [r7, #0]
    1396:	681b      	ldr	r3, [r3, #0]
    1398:	e003      	b.n	13a2 <xvprintf+0x1fa>
    139a:	683b      	ldr	r3, [r7, #0]
    139c:	1d1a      	adds	r2, r3, #4
    139e:	603a      	str	r2, [r7, #0]
    13a0:	681b      	ldr	r3, [r3, #0]
    13a2:	623b      	str	r3, [r7, #32]
    13a4:	231e      	movs	r3, #30
    13a6:	18fb      	adds	r3, r7, r3
    13a8:	781b      	ldrb	r3, [r3, #0]
    13aa:	2b44      	cmp	r3, #68	; 0x44
    13ac:	d109      	bne.n	13c2 <xvprintf+0x21a>
    13ae:	6a3b      	ldr	r3, [r7, #32]
    13b0:	2b00      	cmp	r3, #0
    13b2:	da06      	bge.n	13c2 <xvprintf+0x21a>
    13b4:	6a3b      	ldr	r3, [r7, #32]
    13b6:	425b      	negs	r3, r3
    13b8:	623b      	str	r3, [r7, #32]
    13ba:	6a7b      	ldr	r3, [r7, #36]	; 0x24
    13bc:	2208      	movs	r2, #8
    13be:	4313      	orrs	r3, r2
    13c0:	627b      	str	r3, [r7, #36]	; 0x24
    13c2:	2300      	movs	r3, #0
    13c4:	633b      	str	r3, [r7, #48]	; 0x30
    13c6:	6a3b      	ldr	r3, [r7, #32]
    13c8:	6b79      	ldr	r1, [r7, #52]	; 0x34
    13ca:	0018      	movs	r0, r3
    13cc:	f003 f874 	bl	44b8 <__aeabi_uidivmod>
    13d0:	000b      	movs	r3, r1
    13d2:	001a      	movs	r2, r3
    13d4:	231e      	movs	r3, #30
    13d6:	18fb      	adds	r3, r7, r3
    13d8:	701a      	strb	r2, [r3, #0]
    13da:	6b79      	ldr	r1, [r7, #52]	; 0x34
    13dc:	6a38      	ldr	r0, [r7, #32]
    13de:	f002 ffe5 	bl	43ac <__aeabi_uidiv>
    13e2:	0003      	movs	r3, r0
    13e4:	623b      	str	r3, [r7, #32]
    13e6:	231e      	movs	r3, #30
    13e8:	18fb      	adds	r3, r7, r3
    13ea:	781b      	ldrb	r3, [r3, #0]
    13ec:	2b09      	cmp	r3, #9
    13ee:	d90e      	bls.n	140e <xvprintf+0x266>
    13f0:	231f      	movs	r3, #31
    13f2:	18fb      	adds	r3, r7, r3
    13f4:	781b      	ldrb	r3, [r3, #0]
    13f6:	2b78      	cmp	r3, #120	; 0x78
    13f8:	d101      	bne.n	13fe <xvprintf+0x256>
    13fa:	2327      	movs	r3, #39	; 0x27
    13fc:	e000      	b.n	1400 <xvprintf+0x258>
    13fe:	2307      	movs	r3, #7
    1400:	221e      	movs	r2, #30
    1402:	18ba      	adds	r2, r7, r2
    1404:	211e      	movs	r1, #30
    1406:	1879      	adds	r1, r7, r1
    1408:	7809      	ldrb	r1, [r1, #0]
    140a:	185b      	adds	r3, r3, r1
    140c:	7013      	strb	r3, [r2, #0]
    140e:	6b3b      	ldr	r3, [r7, #48]	; 0x30
    1410:	1c5a      	adds	r2, r3, #1
    1412:	633a      	str	r2, [r7, #48]	; 0x30
    1414:	221e      	movs	r2, #30
    1416:	18ba      	adds	r2, r7, r2
    1418:	7812      	ldrb	r2, [r2, #0]
    141a:	3230      	adds	r2, #48	; 0x30
    141c:	b2d1      	uxtb	r1, r2
    141e:	2208      	movs	r2, #8
    1420:	18ba      	adds	r2, r7, r2
    1422:	54d1      	strb	r1, [r2, r3]
    1424:	6a3b      	ldr	r3, [r7, #32]
    1426:	2b00      	cmp	r3, #0
    1428:	d002      	beq.n	1430 <xvprintf+0x288>
    142a:	6b3b      	ldr	r3, [r7, #48]	; 0x30
    142c:	2b0f      	cmp	r3, #15
    142e:	d9ca      	bls.n	13c6 <xvprintf+0x21e>
    1430:	6a7b      	ldr	r3, [r7, #36]	; 0x24
    1432:	2208      	movs	r2, #8
    1434:	4013      	ands	r3, r2
    1436:	d006      	beq.n	1446 <xvprintf+0x29e>
    1438:	6b3b      	ldr	r3, [r7, #48]	; 0x30
    143a:	1c5a      	adds	r2, r3, #1
    143c:	633a      	str	r2, [r7, #48]	; 0x30
    143e:	2208      	movs	r2, #8
    1440:	18ba      	adds	r2, r7, r2
    1442:	212d      	movs	r1, #45	; 0x2d
    1444:	54d1      	strb	r1, [r2, r3]
    1446:	6b3b      	ldr	r3, [r7, #48]	; 0x30
    1448:	62fb      	str	r3, [r7, #44]	; 0x2c
    144a:	6a7b      	ldr	r3, [r7, #36]	; 0x24
    144c:	2201      	movs	r2, #1
    144e:	4013      	ands	r3, r2
    1450:	d001      	beq.n	1456 <xvprintf+0x2ae>
    1452:	2230      	movs	r2, #48	; 0x30
    1454:	e000      	b.n	1458 <xvprintf+0x2b0>
    1456:	2220      	movs	r2, #32
    1458:	231e      	movs	r3, #30
    145a:	18fb      	adds	r3, r7, r3
    145c:	701a      	strb	r2, [r3, #0]
    145e:	e005      	b.n	146c <xvprintf+0x2c4>
    1460:	231e      	movs	r3, #30
    1462:	18fb      	adds	r3, r7, r3
    1464:	781b      	ldrb	r3, [r3, #0]
    1466:	0018      	movs	r0, r3
    1468:	f7ff fe3e 	bl	10e8 <xputc>
    146c:	6a7b      	ldr	r3, [r7, #36]	; 0x24
    146e:	2202      	movs	r2, #2
    1470:	4013      	ands	r3, r2
    1472:	d105      	bne.n	1480 <xvprintf+0x2d8>
    1474:	6afb      	ldr	r3, [r7, #44]	; 0x2c
    1476:	1c5a      	adds	r2, r3, #1
    1478:	62fa      	str	r2, [r7, #44]	; 0x2c
    147a:	6aba      	ldr	r2, [r7, #40]	; 0x28
    147c:	4293      	cmp	r3, r2
    147e:	d3ef      	bcc.n	1460 <xvprintf+0x2b8>
    1480:	6b3b      	ldr	r3, [r7, #48]	; 0x30
    1482:	3b01      	subs	r3, #1
    1484:	633b      	str	r3, [r7, #48]	; 0x30
    1486:	2308      	movs	r3, #8
    1488:	18fa      	adds	r2, r7, r3
    148a:	6b3b      	ldr	r3, [r7, #48]	; 0x30
    148c:	18d3      	adds	r3, r2, r3
    148e:	781b      	ldrb	r3, [r3, #0]
    1490:	0018      	movs	r0, r3
    1492:	f7ff fe29 	bl	10e8 <xputc>
    1496:	6b3b      	ldr	r3, [r7, #48]	; 0x30
    1498:	2b00      	cmp	r3, #0
    149a:	d1f1      	bne.n	1480 <xvprintf+0x2d8>
    149c:	e002      	b.n	14a4 <xvprintf+0x2fc>
    149e:	2020      	movs	r0, #32
    14a0:	f7ff fe22 	bl	10e8 <xputc>
    14a4:	6afb      	ldr	r3, [r7, #44]	; 0x2c
    14a6:	1c5a      	adds	r2, r3, #1
    14a8:	62fa      	str	r2, [r7, #44]	; 0x2c
    14aa:	6aba      	ldr	r2, [r7, #40]	; 0x28
    14ac:	4293      	cmp	r3, r2
    14ae:	d3f6      	bcc.n	149e <xvprintf+0x2f6>
    14b0:	e67f      	b.n	11b2 <xvprintf+0xa>
    14b2:	46c0      	nop			; (mov r8, r8)
    14b4:	e000      	b.n	14b8 <xvprintf+0x310>
    14b6:	46c0      	nop			; (mov r8, r8)
    14b8:	46c0      	nop			; (mov r8, r8)
    14ba:	46bd      	mov	sp, r7
    14bc:	b00e      	add	sp, #56	; 0x38
    14be:	bd80      	pop	{r7, pc}
    14c0:	00008598 	.word	0x00008598

000014c4 <xprintf>:
    14c4:	b40f      	push	{r0, r1, r2, r3}
    14c6:	b580      	push	{r7, lr}
    14c8:	b082      	sub	sp, #8
    14ca:	af00      	add	r7, sp, #0
    14cc:	2314      	movs	r3, #20
    14ce:	18fb      	adds	r3, r7, r3
    14d0:	607b      	str	r3, [r7, #4]
    14d2:	687a      	ldr	r2, [r7, #4]
    14d4:	693b      	ldr	r3, [r7, #16]
    14d6:	0011      	movs	r1, r2
    14d8:	0018      	movs	r0, r3
    14da:	f7ff fe65 	bl	11a8 <xvprintf>
    14de:	46c0      	nop			; (mov r8, r8)
    14e0:	46bd      	mov	sp, r7
    14e2:	b002      	add	sp, #8
    14e4:	bc80      	pop	{r7}
    14e6:	bc08      	pop	{r3}
    14e8:	b004      	add	sp, #16
    14ea:	4718      	bx	r3

000014ec <xsprintf>:
    14ec:	b40e      	push	{r1, r2, r3}
    14ee:	b580      	push	{r7, lr}
    14f0:	b085      	sub	sp, #20
    14f2:	af00      	add	r7, sp, #0
    14f4:	6078      	str	r0, [r7, #4]
    14f6:	4b0d      	ldr	r3, [pc, #52]	; (152c <xsprintf+0x40>)
    14f8:	687a      	ldr	r2, [r7, #4]
    14fa:	601a      	str	r2, [r3, #0]
    14fc:	2320      	movs	r3, #32
    14fe:	18fb      	adds	r3, r7, r3
    1500:	60fb      	str	r3, [r7, #12]
    1502:	68fa      	ldr	r2, [r7, #12]
    1504:	69fb      	ldr	r3, [r7, #28]
    1506:	0011      	movs	r1, r2
    1508:	0018      	movs	r0, r3
    150a:	f7ff fe4d 	bl	11a8 <xvprintf>
    150e:	4b07      	ldr	r3, [pc, #28]	; (152c <xsprintf+0x40>)
    1510:	681b      	ldr	r3, [r3, #0]
    1512:	2200      	movs	r2, #0
    1514:	701a      	strb	r2, [r3, #0]
    1516:	4b05      	ldr	r3, [pc, #20]	; (152c <xsprintf+0x40>)
    1518:	2200      	movs	r2, #0
    151a:	601a      	str	r2, [r3, #0]
    151c:	46c0      	nop			; (mov r8, r8)
    151e:	46bd      	mov	sp, r7
    1520:	b005      	add	sp, #20
    1522:	bc80      	pop	{r7}
    1524:	bc08      	pop	{r3}
    1526:	b003      	add	sp, #12
    1528:	4718      	bx	r3
    152a:	46c0      	nop			; (mov r8, r8)
    152c:	20000900 	.word	0x20000900

00001530 <xfprintf>:
    1530:	b40e      	push	{r1, r2, r3}
    1532:	b580      	push	{r7, lr}
    1534:	b085      	sub	sp, #20
    1536:	af00      	add	r7, sp, #0
    1538:	6078      	str	r0, [r7, #4]
    153a:	4b0c      	ldr	r3, [pc, #48]	; (156c <xfprintf+0x3c>)
    153c:	681b      	ldr	r3, [r3, #0]
    153e:	60fb      	str	r3, [r7, #12]
    1540:	4b0a      	ldr	r3, [pc, #40]	; (156c <xfprintf+0x3c>)
    1542:	687a      	ldr	r2, [r7, #4]
    1544:	601a      	str	r2, [r3, #0]
    1546:	2320      	movs	r3, #32
    1548:	18fb      	adds	r3, r7, r3
    154a:	60bb      	str	r3, [r7, #8]
    154c:	68ba      	ldr	r2, [r7, #8]
    154e:	69fb      	ldr	r3, [r7, #28]
    1550:	0011      	movs	r1, r2
    1552:	0018      	movs	r0, r3
    1554:	f7ff fe28 	bl	11a8 <xvprintf>
    1558:	4b04      	ldr	r3, [pc, #16]	; (156c <xfprintf+0x3c>)
    155a:	68fa      	ldr	r2, [r7, #12]
    155c:	601a      	str	r2, [r3, #0]
    155e:	46c0      	nop			; (mov r8, r8)
    1560:	46bd      	mov	sp, r7
    1562:	b005      	add	sp, #20
    1564:	bc80      	pop	{r7}
    1566:	bc08      	pop	{r3}
    1568:	b003      	add	sp, #12
    156a:	4718      	bx	r3
    156c:	200008fc 	.word	0x200008fc

00001570 <put_dump>:
    1570:	b580      	push	{r7, lr}
    1572:	b088      	sub	sp, #32
    1574:	af00      	add	r7, sp, #0
    1576:	60f8      	str	r0, [r7, #12]
    1578:	60b9      	str	r1, [r7, #8]
    157a:	607a      	str	r2, [r7, #4]
    157c:	603b      	str	r3, [r7, #0]
    157e:	68ba      	ldr	r2, [r7, #8]
    1580:	4b38      	ldr	r3, [pc, #224]	; (1664 <put_dump+0xf4>)
    1582:	0011      	movs	r1, r2
    1584:	0018      	movs	r0, r3
    1586:	f7ff ff9d 	bl	14c4 <xprintf>
    158a:	683b      	ldr	r3, [r7, #0]
    158c:	2b02      	cmp	r3, #2
    158e:	d03c      	beq.n	160a <put_dump+0x9a>
    1590:	2b04      	cmp	r3, #4
    1592:	d04d      	beq.n	1630 <put_dump+0xc0>
    1594:	2b01      	cmp	r3, #1
    1596:	d15d      	bne.n	1654 <put_dump+0xe4>
    1598:	68fb      	ldr	r3, [r7, #12]
    159a:	613b      	str	r3, [r7, #16]
    159c:	2300      	movs	r3, #0
    159e:	61fb      	str	r3, [r7, #28]
    15a0:	e00c      	b.n	15bc <put_dump+0x4c>
    15a2:	69fb      	ldr	r3, [r7, #28]
    15a4:	693a      	ldr	r2, [r7, #16]
    15a6:	18d3      	adds	r3, r2, r3
    15a8:	781b      	ldrb	r3, [r3, #0]
    15aa:	001a      	movs	r2, r3
    15ac:	4b2e      	ldr	r3, [pc, #184]	; (1668 <put_dump+0xf8>)
    15ae:	0011      	movs	r1, r2
    15b0:	0018      	movs	r0, r3
    15b2:	f7ff ff87 	bl	14c4 <xprintf>
    15b6:	69fb      	ldr	r3, [r7, #28]
    15b8:	3301      	adds	r3, #1
    15ba:	61fb      	str	r3, [r7, #28]
    15bc:	69fa      	ldr	r2, [r7, #28]
    15be:	687b      	ldr	r3, [r7, #4]
    15c0:	429a      	cmp	r2, r3
    15c2:	dbee      	blt.n	15a2 <put_dump+0x32>
    15c4:	2020      	movs	r0, #32
    15c6:	f7ff fd8f 	bl	10e8 <xputc>
    15ca:	2300      	movs	r3, #0
    15cc:	61fb      	str	r3, [r7, #28]
    15ce:	e017      	b.n	1600 <put_dump+0x90>
    15d0:	69fb      	ldr	r3, [r7, #28]
    15d2:	693a      	ldr	r2, [r7, #16]
    15d4:	18d3      	adds	r3, r2, r3
    15d6:	781b      	ldrb	r3, [r3, #0]
    15d8:	2b1f      	cmp	r3, #31
    15da:	d90a      	bls.n	15f2 <put_dump+0x82>
    15dc:	69fb      	ldr	r3, [r7, #28]
    15de:	693a      	ldr	r2, [r7, #16]
    15e0:	18d3      	adds	r3, r2, r3
    15e2:	781b      	ldrb	r3, [r3, #0]
    15e4:	2b7e      	cmp	r3, #126	; 0x7e
    15e6:	d804      	bhi.n	15f2 <put_dump+0x82>
    15e8:	69fb      	ldr	r3, [r7, #28]
    15ea:	693a      	ldr	r2, [r7, #16]
    15ec:	18d3      	adds	r3, r2, r3
    15ee:	781b      	ldrb	r3, [r3, #0]
    15f0:	e000      	b.n	15f4 <put_dump+0x84>
    15f2:	232e      	movs	r3, #46	; 0x2e
    15f4:	0018      	movs	r0, r3
    15f6:	f7ff fd77 	bl	10e8 <xputc>
    15fa:	69fb      	ldr	r3, [r7, #28]
    15fc:	3301      	adds	r3, #1
    15fe:	61fb      	str	r3, [r7, #28]
    1600:	69fa      	ldr	r2, [r7, #28]
    1602:	687b      	ldr	r3, [r7, #4]
    1604:	429a      	cmp	r2, r3
    1606:	dbe3      	blt.n	15d0 <put_dump+0x60>
    1608:	e024      	b.n	1654 <put_dump+0xe4>
    160a:	68fb      	ldr	r3, [r7, #12]
    160c:	61bb      	str	r3, [r7, #24]
    160e:	69bb      	ldr	r3, [r7, #24]
    1610:	1c9a      	adds	r2, r3, #2
    1612:	61ba      	str	r2, [r7, #24]
    1614:	881b      	ldrh	r3, [r3, #0]
    1616:	001a      	movs	r2, r3
    1618:	4b14      	ldr	r3, [pc, #80]	; (166c <put_dump+0xfc>)
    161a:	0011      	movs	r1, r2
    161c:	0018      	movs	r0, r3
    161e:	f7ff ff51 	bl	14c4 <xprintf>
    1622:	687b      	ldr	r3, [r7, #4]
    1624:	3b01      	subs	r3, #1
    1626:	607b      	str	r3, [r7, #4]
    1628:	687b      	ldr	r3, [r7, #4]
    162a:	2b00      	cmp	r3, #0
    162c:	d1ef      	bne.n	160e <put_dump+0x9e>
    162e:	e011      	b.n	1654 <put_dump+0xe4>
    1630:	68fb      	ldr	r3, [r7, #12]
    1632:	617b      	str	r3, [r7, #20]
    1634:	697b      	ldr	r3, [r7, #20]
    1636:	1d1a      	adds	r2, r3, #4
    1638:	617a      	str	r2, [r7, #20]
    163a:	681a      	ldr	r2, [r3, #0]
    163c:	4b0c      	ldr	r3, [pc, #48]	; (1670 <put_dump+0x100>)
    163e:	0011      	movs	r1, r2
    1640:	0018      	movs	r0, r3
    1642:	f7ff ff3f 	bl	14c4 <xprintf>
    1646:	687b      	ldr	r3, [r7, #4]
    1648:	3b01      	subs	r3, #1
    164a:	607b      	str	r3, [r7, #4]
    164c:	687b      	ldr	r3, [r7, #4]
    164e:	2b00      	cmp	r3, #0
    1650:	d1f0      	bne.n	1634 <put_dump+0xc4>
    1652:	46c0      	nop			; (mov r8, r8)
    1654:	200a      	movs	r0, #10
    1656:	f7ff fd47 	bl	10e8 <xputc>
    165a:	46c0      	nop			; (mov r8, r8)
    165c:	46bd      	mov	sp, r7
    165e:	b008      	add	sp, #32
    1660:	bd80      	pop	{r7, pc}
    1662:	46c0      	nop			; (mov r8, r8)
    1664:	000085f4 	.word	0x000085f4
    1668:	000085fc 	.word	0x000085fc
    166c:	00008604 	.word	0x00008604
    1670:	0000860c 	.word	0x0000860c

00001674 <xgets>:
    1674:	b580      	push	{r7, lr}
    1676:	b084      	sub	sp, #16
    1678:	af00      	add	r7, sp, #0
    167a:	6078      	str	r0, [r7, #4]
    167c:	6039      	str	r1, [r7, #0]
    167e:	4b24      	ldr	r3, [pc, #144]	; (1710 <xgets+0x9c>)
    1680:	681b      	ldr	r3, [r3, #0]
    1682:	2b00      	cmp	r3, #0
    1684:	d101      	bne.n	168a <xgets+0x16>
    1686:	2300      	movs	r3, #0
    1688:	e03e      	b.n	1708 <xgets+0x94>
    168a:	2300      	movs	r3, #0
    168c:	60fb      	str	r3, [r7, #12]
    168e:	4b20      	ldr	r3, [pc, #128]	; (1710 <xgets+0x9c>)
    1690:	681b      	ldr	r3, [r3, #0]
    1692:	4798      	blx	r3
    1694:	0003      	movs	r3, r0
    1696:	60bb      	str	r3, [r7, #8]
    1698:	68bb      	ldr	r3, [r7, #8]
    169a:	2b00      	cmp	r3, #0
    169c:	d101      	bne.n	16a2 <xgets+0x2e>
    169e:	2300      	movs	r3, #0
    16a0:	e032      	b.n	1708 <xgets+0x94>
    16a2:	68bb      	ldr	r3, [r7, #8]
    16a4:	2b0d      	cmp	r3, #13
    16a6:	d025      	beq.n	16f4 <xgets+0x80>
    16a8:	68bb      	ldr	r3, [r7, #8]
    16aa:	2b08      	cmp	r3, #8
    16ac:	d10b      	bne.n	16c6 <xgets+0x52>
    16ae:	68fb      	ldr	r3, [r7, #12]
    16b0:	2b00      	cmp	r3, #0
    16b2:	d008      	beq.n	16c6 <xgets+0x52>
    16b4:	68fb      	ldr	r3, [r7, #12]
    16b6:	3b01      	subs	r3, #1
    16b8:	60fb      	str	r3, [r7, #12]
    16ba:	68bb      	ldr	r3, [r7, #8]
    16bc:	b2db      	uxtb	r3, r3
    16be:	0018      	movs	r0, r3
    16c0:	f7ff fd12 	bl	10e8 <xputc>
    16c4:	e015      	b.n	16f2 <xgets+0x7e>
    16c6:	68bb      	ldr	r3, [r7, #8]
    16c8:	2b1f      	cmp	r3, #31
    16ca:	dde0      	ble.n	168e <xgets+0x1a>
    16cc:	683b      	ldr	r3, [r7, #0]
    16ce:	1e5a      	subs	r2, r3, #1
    16d0:	68fb      	ldr	r3, [r7, #12]
    16d2:	429a      	cmp	r2, r3
    16d4:	dddb      	ble.n	168e <xgets+0x1a>
    16d6:	68fb      	ldr	r3, [r7, #12]
    16d8:	1c5a      	adds	r2, r3, #1
    16da:	60fa      	str	r2, [r7, #12]
    16dc:	001a      	movs	r2, r3
    16de:	687b      	ldr	r3, [r7, #4]
    16e0:	189b      	adds	r3, r3, r2
    16e2:	68ba      	ldr	r2, [r7, #8]
    16e4:	b2d2      	uxtb	r2, r2
    16e6:	701a      	strb	r2, [r3, #0]
    16e8:	68bb      	ldr	r3, [r7, #8]
    16ea:	b2db      	uxtb	r3, r3
    16ec:	0018      	movs	r0, r3
    16ee:	f7ff fcfb 	bl	10e8 <xputc>
    16f2:	e7cc      	b.n	168e <xgets+0x1a>
    16f4:	46c0      	nop			; (mov r8, r8)
    16f6:	68fb      	ldr	r3, [r7, #12]
    16f8:	687a      	ldr	r2, [r7, #4]
    16fa:	18d3      	adds	r3, r2, r3
    16fc:	2200      	movs	r2, #0
    16fe:	701a      	strb	r2, [r3, #0]
    1700:	200a      	movs	r0, #10
    1702:	f7ff fcf1 	bl	10e8 <xputc>
    1706:	2301      	movs	r3, #1
    1708:	0018      	movs	r0, r3
    170a:	46bd      	mov	sp, r7
    170c:	b004      	add	sp, #16
    170e:	bd80      	pop	{r7, pc}
    1710:	20000904 	.word	0x20000904

00001714 <xfgets>:
    1714:	b580      	push	{r7, lr}
    1716:	b086      	sub	sp, #24
    1718:	af00      	add	r7, sp, #0
    171a:	60f8      	str	r0, [r7, #12]
    171c:	60b9      	str	r1, [r7, #8]
    171e:	607a      	str	r2, [r7, #4]
    1720:	4b0a      	ldr	r3, [pc, #40]	; (174c <xfgets+0x38>)
    1722:	681b      	ldr	r3, [r3, #0]
    1724:	617b      	str	r3, [r7, #20]
    1726:	4b09      	ldr	r3, [pc, #36]	; (174c <xfgets+0x38>)
    1728:	68fa      	ldr	r2, [r7, #12]
    172a:	601a      	str	r2, [r3, #0]
    172c:	687a      	ldr	r2, [r7, #4]
    172e:	68bb      	ldr	r3, [r7, #8]
    1730:	0011      	movs	r1, r2
    1732:	0018      	movs	r0, r3
    1734:	f7ff ff9e 	bl	1674 <xgets>
    1738:	0003      	movs	r3, r0
    173a:	613b      	str	r3, [r7, #16]
    173c:	4b03      	ldr	r3, [pc, #12]	; (174c <xfgets+0x38>)
    173e:	697a      	ldr	r2, [r7, #20]
    1740:	601a      	str	r2, [r3, #0]
    1742:	693b      	ldr	r3, [r7, #16]
    1744:	0018      	movs	r0, r3
    1746:	46bd      	mov	sp, r7
    1748:	b006      	add	sp, #24
    174a:	bd80      	pop	{r7, pc}
    174c:	20000904 	.word	0x20000904

00001750 <xatoi>:
    1750:	b580      	push	{r7, lr}
    1752:	b084      	sub	sp, #16
    1754:	af00      	add	r7, sp, #0
    1756:	6078      	str	r0, [r7, #4]
    1758:	6039      	str	r1, [r7, #0]
    175a:	2309      	movs	r3, #9
    175c:	18fb      	adds	r3, r7, r3
    175e:	2200      	movs	r2, #0
    1760:	701a      	strb	r2, [r3, #0]
    1762:	683b      	ldr	r3, [r7, #0]
    1764:	2200      	movs	r2, #0
    1766:	601a      	str	r2, [r3, #0]
    1768:	e004      	b.n	1774 <xatoi+0x24>
    176a:	687b      	ldr	r3, [r7, #4]
    176c:	681b      	ldr	r3, [r3, #0]
    176e:	1c5a      	adds	r2, r3, #1
    1770:	687b      	ldr	r3, [r7, #4]
    1772:	601a      	str	r2, [r3, #0]
    1774:	687b      	ldr	r3, [r7, #4]
    1776:	681a      	ldr	r2, [r3, #0]
    1778:	230b      	movs	r3, #11
    177a:	18fb      	adds	r3, r7, r3
    177c:	7812      	ldrb	r2, [r2, #0]
    177e:	701a      	strb	r2, [r3, #0]
    1780:	230b      	movs	r3, #11
    1782:	18fb      	adds	r3, r7, r3
    1784:	781b      	ldrb	r3, [r3, #0]
    1786:	2b20      	cmp	r3, #32
    1788:	d0ef      	beq.n	176a <xatoi+0x1a>
    178a:	230b      	movs	r3, #11
    178c:	18fb      	adds	r3, r7, r3
    178e:	781b      	ldrb	r3, [r3, #0]
    1790:	2b2d      	cmp	r3, #45	; 0x2d
    1792:	d10e      	bne.n	17b2 <xatoi+0x62>
    1794:	2309      	movs	r3, #9
    1796:	18fb      	adds	r3, r7, r3
    1798:	2201      	movs	r2, #1
    179a:	701a      	strb	r2, [r3, #0]
    179c:	687b      	ldr	r3, [r7, #4]
    179e:	681b      	ldr	r3, [r3, #0]
    17a0:	1c5a      	adds	r2, r3, #1
    17a2:	687b      	ldr	r3, [r7, #4]
    17a4:	601a      	str	r2, [r3, #0]
    17a6:	687b      	ldr	r3, [r7, #4]
    17a8:	681a      	ldr	r2, [r3, #0]
    17aa:	230b      	movs	r3, #11
    17ac:	18fb      	adds	r3, r7, r3
    17ae:	7812      	ldrb	r2, [r2, #0]
    17b0:	701a      	strb	r2, [r3, #0]
    17b2:	230b      	movs	r3, #11
    17b4:	18fb      	adds	r3, r7, r3
    17b6:	781b      	ldrb	r3, [r3, #0]
    17b8:	2b30      	cmp	r3, #48	; 0x30
    17ba:	d149      	bne.n	1850 <xatoi+0x100>
    17bc:	687b      	ldr	r3, [r7, #4]
    17be:	681b      	ldr	r3, [r3, #0]
    17c0:	1c5a      	adds	r2, r3, #1
    17c2:	687b      	ldr	r3, [r7, #4]
    17c4:	601a      	str	r2, [r3, #0]
    17c6:	687b      	ldr	r3, [r7, #4]
    17c8:	681a      	ldr	r2, [r3, #0]
    17ca:	230b      	movs	r3, #11
    17cc:	18fb      	adds	r3, r7, r3
    17ce:	7812      	ldrb	r2, [r2, #0]
    17d0:	701a      	strb	r2, [r3, #0]
    17d2:	230b      	movs	r3, #11
    17d4:	18fb      	adds	r3, r7, r3
    17d6:	781b      	ldrb	r3, [r3, #0]
    17d8:	2b62      	cmp	r3, #98	; 0x62
    17da:	d011      	beq.n	1800 <xatoi+0xb0>
    17dc:	2b78      	cmp	r3, #120	; 0x78
    17de:	d11f      	bne.n	1820 <xatoi+0xd0>
    17e0:	230a      	movs	r3, #10
    17e2:	18fb      	adds	r3, r7, r3
    17e4:	2210      	movs	r2, #16
    17e6:	701a      	strb	r2, [r3, #0]
    17e8:	687b      	ldr	r3, [r7, #4]
    17ea:	681b      	ldr	r3, [r3, #0]
    17ec:	1c5a      	adds	r2, r3, #1
    17ee:	687b      	ldr	r3, [r7, #4]
    17f0:	601a      	str	r2, [r3, #0]
    17f2:	687b      	ldr	r3, [r7, #4]
    17f4:	681a      	ldr	r2, [r3, #0]
    17f6:	230b      	movs	r3, #11
    17f8:	18fb      	adds	r3, r7, r3
    17fa:	7812      	ldrb	r2, [r2, #0]
    17fc:	701a      	strb	r2, [r3, #0]
    17fe:	e037      	b.n	1870 <xatoi+0x120>
    1800:	230a      	movs	r3, #10
    1802:	18fb      	adds	r3, r7, r3
    1804:	2202      	movs	r2, #2
    1806:	701a      	strb	r2, [r3, #0]
    1808:	687b      	ldr	r3, [r7, #4]
    180a:	681b      	ldr	r3, [r3, #0]
    180c:	1c5a      	adds	r2, r3, #1
    180e:	687b      	ldr	r3, [r7, #4]
    1810:	601a      	str	r2, [r3, #0]
    1812:	687b      	ldr	r3, [r7, #4]
    1814:	681a      	ldr	r2, [r3, #0]
    1816:	230b      	movs	r3, #11
    1818:	18fb      	adds	r3, r7, r3
    181a:	7812      	ldrb	r2, [r2, #0]
    181c:	701a      	strb	r2, [r3, #0]
    181e:	e027      	b.n	1870 <xatoi+0x120>
    1820:	230b      	movs	r3, #11
    1822:	18fb      	adds	r3, r7, r3
    1824:	781b      	ldrb	r3, [r3, #0]
    1826:	2b20      	cmp	r3, #32
    1828:	d801      	bhi.n	182e <xatoi+0xde>
    182a:	2301      	movs	r3, #1
    182c:	e079      	b.n	1922 <xatoi+0x1d2>
    182e:	230b      	movs	r3, #11
    1830:	18fb      	adds	r3, r7, r3
    1832:	781b      	ldrb	r3, [r3, #0]
    1834:	2b2f      	cmp	r3, #47	; 0x2f
    1836:	d904      	bls.n	1842 <xatoi+0xf2>
    1838:	230b      	movs	r3, #11
    183a:	18fb      	adds	r3, r7, r3
    183c:	781b      	ldrb	r3, [r3, #0]
    183e:	2b39      	cmp	r3, #57	; 0x39
    1840:	d901      	bls.n	1846 <xatoi+0xf6>
    1842:	2300      	movs	r3, #0
    1844:	e06d      	b.n	1922 <xatoi+0x1d2>
    1846:	230a      	movs	r3, #10
    1848:	18fb      	adds	r3, r7, r3
    184a:	2208      	movs	r2, #8
    184c:	701a      	strb	r2, [r3, #0]
    184e:	e00f      	b.n	1870 <xatoi+0x120>
    1850:	230b      	movs	r3, #11
    1852:	18fb      	adds	r3, r7, r3
    1854:	781b      	ldrb	r3, [r3, #0]
    1856:	2b2f      	cmp	r3, #47	; 0x2f
    1858:	d904      	bls.n	1864 <xatoi+0x114>
    185a:	230b      	movs	r3, #11
    185c:	18fb      	adds	r3, r7, r3
    185e:	781b      	ldrb	r3, [r3, #0]
    1860:	2b39      	cmp	r3, #57	; 0x39
    1862:	d901      	bls.n	1868 <xatoi+0x118>
    1864:	2300      	movs	r3, #0
    1866:	e05c      	b.n	1922 <xatoi+0x1d2>
    1868:	230a      	movs	r3, #10
    186a:	18fb      	adds	r3, r7, r3
    186c:	220a      	movs	r2, #10
    186e:	701a      	strb	r2, [r3, #0]
    1870:	2300      	movs	r3, #0
    1872:	60fb      	str	r3, [r7, #12]
    1874:	e044      	b.n	1900 <xatoi+0x1b0>
    1876:	230b      	movs	r3, #11
    1878:	18fb      	adds	r3, r7, r3
    187a:	781b      	ldrb	r3, [r3, #0]
    187c:	2b60      	cmp	r3, #96	; 0x60
    187e:	d906      	bls.n	188e <xatoi+0x13e>
    1880:	230b      	movs	r3, #11
    1882:	18fb      	adds	r3, r7, r3
    1884:	220b      	movs	r2, #11
    1886:	18ba      	adds	r2, r7, r2
    1888:	7812      	ldrb	r2, [r2, #0]
    188a:	3a20      	subs	r2, #32
    188c:	701a      	strb	r2, [r3, #0]
    188e:	230b      	movs	r3, #11
    1890:	18fb      	adds	r3, r7, r3
    1892:	220b      	movs	r2, #11
    1894:	18ba      	adds	r2, r7, r2
    1896:	7812      	ldrb	r2, [r2, #0]
    1898:	3a30      	subs	r2, #48	; 0x30
    189a:	701a      	strb	r2, [r3, #0]
    189c:	230b      	movs	r3, #11
    189e:	18fb      	adds	r3, r7, r3
    18a0:	781b      	ldrb	r3, [r3, #0]
    18a2:	2b10      	cmp	r3, #16
    18a4:	d90d      	bls.n	18c2 <xatoi+0x172>
    18a6:	230b      	movs	r3, #11
    18a8:	18fb      	adds	r3, r7, r3
    18aa:	220b      	movs	r2, #11
    18ac:	18ba      	adds	r2, r7, r2
    18ae:	7812      	ldrb	r2, [r2, #0]
    18b0:	3a07      	subs	r2, #7
    18b2:	701a      	strb	r2, [r3, #0]
    18b4:	230b      	movs	r3, #11
    18b6:	18fb      	adds	r3, r7, r3
    18b8:	781b      	ldrb	r3, [r3, #0]
    18ba:	2b09      	cmp	r3, #9
    18bc:	d801      	bhi.n	18c2 <xatoi+0x172>
    18be:	2300      	movs	r3, #0
    18c0:	e02f      	b.n	1922 <xatoi+0x1d2>
    18c2:	230b      	movs	r3, #11
    18c4:	18fa      	adds	r2, r7, r3
    18c6:	230a      	movs	r3, #10
    18c8:	18fb      	adds	r3, r7, r3
    18ca:	7812      	ldrb	r2, [r2, #0]
    18cc:	781b      	ldrb	r3, [r3, #0]
    18ce:	429a      	cmp	r2, r3
    18d0:	d301      	bcc.n	18d6 <xatoi+0x186>
    18d2:	2300      	movs	r3, #0
    18d4:	e025      	b.n	1922 <xatoi+0x1d2>
    18d6:	230a      	movs	r3, #10
    18d8:	18fb      	adds	r3, r7, r3
    18da:	781b      	ldrb	r3, [r3, #0]
    18dc:	68fa      	ldr	r2, [r7, #12]
    18de:	435a      	muls	r2, r3
    18e0:	230b      	movs	r3, #11
    18e2:	18fb      	adds	r3, r7, r3
    18e4:	781b      	ldrb	r3, [r3, #0]
    18e6:	18d3      	adds	r3, r2, r3
    18e8:	60fb      	str	r3, [r7, #12]
    18ea:	687b      	ldr	r3, [r7, #4]
    18ec:	681b      	ldr	r3, [r3, #0]
    18ee:	1c5a      	adds	r2, r3, #1
    18f0:	687b      	ldr	r3, [r7, #4]
    18f2:	601a      	str	r2, [r3, #0]
    18f4:	687b      	ldr	r3, [r7, #4]
    18f6:	681a      	ldr	r2, [r3, #0]
    18f8:	230b      	movs	r3, #11
    18fa:	18fb      	adds	r3, r7, r3
    18fc:	7812      	ldrb	r2, [r2, #0]
    18fe:	701a      	strb	r2, [r3, #0]
    1900:	230b      	movs	r3, #11
    1902:	18fb      	adds	r3, r7, r3
    1904:	781b      	ldrb	r3, [r3, #0]
    1906:	2b20      	cmp	r3, #32
    1908:	d8b5      	bhi.n	1876 <xatoi+0x126>
    190a:	2309      	movs	r3, #9
    190c:	18fb      	adds	r3, r7, r3
    190e:	781b      	ldrb	r3, [r3, #0]
    1910:	2b00      	cmp	r3, #0
    1912:	d002      	beq.n	191a <xatoi+0x1ca>
    1914:	68fb      	ldr	r3, [r7, #12]
    1916:	425b      	negs	r3, r3
    1918:	60fb      	str	r3, [r7, #12]
    191a:	68fa      	ldr	r2, [r7, #12]
    191c:	683b      	ldr	r3, [r7, #0]
    191e:	601a      	str	r2, [r3, #0]
    1920:	2301      	movs	r3, #1
    1922:	0018      	movs	r0, r3
    1924:	46bd      	mov	sp, r7
    1926:	b004      	add	sp, #16
    1928:	bd80      	pop	{r7, pc}
    192a:	46c0      	nop			; (mov r8, r8)

0000192c <os_idle_demon>:
    192c:	b580      	push	{r7, lr}
    192e:	af00      	add	r7, sp, #0
    1930:	e7fe      	b.n	1930 <os_idle_demon+0x4>
    1932:	46c0      	nop			; (mov r8, r8)

00001934 <os_error>:
    1934:	b580      	push	{r7, lr}
    1936:	b082      	sub	sp, #8
    1938:	af00      	add	r7, sp, #0
    193a:	6078      	str	r0, [r7, #4]
    193c:	687b      	ldr	r3, [r7, #4]
    193e:	2b02      	cmp	r3, #2
    1940:	d009      	beq.n	1956 <os_error+0x22>
    1942:	d802      	bhi.n	194a <os_error+0x16>
    1944:	2b01      	cmp	r3, #1
    1946:	d005      	beq.n	1954 <os_error+0x20>
    1948:	e008      	b.n	195c <os_error+0x28>
    194a:	2b03      	cmp	r3, #3
    194c:	d004      	beq.n	1958 <os_error+0x24>
    194e:	2b04      	cmp	r3, #4
    1950:	d003      	beq.n	195a <os_error+0x26>
    1952:	e003      	b.n	195c <os_error+0x28>
    1954:	e002      	b.n	195c <os_error+0x28>
    1956:	e001      	b.n	195c <os_error+0x28>
    1958:	e000      	b.n	195c <os_error+0x28>
    195a:	46c0      	nop			; (mov r8, r8)
    195c:	e7fe      	b.n	195c <os_error+0x28>
    195e:	46c0      	nop			; (mov r8, r8)

00001960 <software_init_hook>:
    1960:	2000      	movs	r0, #0
    1962:	2100      	movs	r1, #0
    1964:	4604      	mov	r4, r0
    1966:	460d      	mov	r5, r1
    1968:	4808      	ldr	r0, [pc, #32]	; (198c <software_init_hook+0x2c>)
    196a:	f003 f875 	bl	4a58 <atexit>
    196e:	f003 f8a5 	bl	4abc <__libc_init_array>
    1972:	4620      	mov	r0, r4
    1974:	4629      	mov	r1, r5
    1976:	f003 ff33 	bl	57e0 <osKernelInitialize>
    197a:	4805      	ldr	r0, [pc, #20]	; (1990 <software_init_hook+0x30>)
    197c:	2100      	movs	r1, #0
    197e:	f004 f8c1 	bl	5b04 <osThreadCreate>
    1982:	f003 ffc9 	bl	5918 <osKernelStart>
    1986:	f003 f86f 	bl	4a68 <exit>
    198a:	0000      	.short	0x0000
    198c:	00004a89 	.word	0x00004a89
    1990:	0000866c 	.word	0x0000866c

00001994 <__NVIC_EnableIRQ>:
    1994:	b580      	push	{r7, lr}
    1996:	b082      	sub	sp, #8
    1998:	af00      	add	r7, sp, #0
    199a:	0002      	movs	r2, r0
    199c:	1dfb      	adds	r3, r7, #7
    199e:	701a      	strb	r2, [r3, #0]
    19a0:	1dfb      	adds	r3, r7, #7
    19a2:	781b      	ldrb	r3, [r3, #0]
    19a4:	2b7f      	cmp	r3, #127	; 0x7f
    19a6:	d809      	bhi.n	19bc <__NVIC_EnableIRQ+0x28>
    19a8:	4b06      	ldr	r3, [pc, #24]	; (19c4 <__NVIC_EnableIRQ+0x30>)
    19aa:	1dfa      	adds	r2, r7, #7
    19ac:	7812      	ldrb	r2, [r2, #0]
    19ae:	0011      	movs	r1, r2
    19b0:	221f      	movs	r2, #31
    19b2:	400a      	ands	r2, r1
    19b4:	2101      	movs	r1, #1
    19b6:	4091      	lsls	r1, r2
    19b8:	000a      	movs	r2, r1
    19ba:	601a      	str	r2, [r3, #0]
    19bc:	46c0      	nop			; (mov r8, r8)
    19be:	46bd      	mov	sp, r7
    19c0:	b002      	add	sp, #8
    19c2:	bd80      	pop	{r7, pc}
    19c4:	e000e100 	.word	0xe000e100

000019c8 <__NVIC_ClearPendingIRQ>:
    19c8:	b580      	push	{r7, lr}
    19ca:	b082      	sub	sp, #8
    19cc:	af00      	add	r7, sp, #0
    19ce:	0002      	movs	r2, r0
    19d0:	1dfb      	adds	r3, r7, #7
    19d2:	701a      	strb	r2, [r3, #0]
    19d4:	1dfb      	adds	r3, r7, #7
    19d6:	781b      	ldrb	r3, [r3, #0]
    19d8:	2b7f      	cmp	r3, #127	; 0x7f
    19da:	d80a      	bhi.n	19f2 <__NVIC_ClearPendingIRQ+0x2a>
    19dc:	4907      	ldr	r1, [pc, #28]	; (19fc <__NVIC_ClearPendingIRQ+0x34>)
    19de:	1dfb      	adds	r3, r7, #7
    19e0:	781b      	ldrb	r3, [r3, #0]
    19e2:	001a      	movs	r2, r3
    19e4:	231f      	movs	r3, #31
    19e6:	4013      	ands	r3, r2
    19e8:	2201      	movs	r2, #1
    19ea:	409a      	lsls	r2, r3
    19ec:	23c0      	movs	r3, #192	; 0xc0
    19ee:	005b      	lsls	r3, r3, #1
    19f0:	50ca      	str	r2, [r1, r3]
    19f2:	46c0      	nop			; (mov r8, r8)
    19f4:	46bd      	mov	sp, r7
    19f6:	b002      	add	sp, #8
    19f8:	bd80      	pop	{r7, pc}
    19fa:	46c0      	nop			; (mov r8, r8)
    19fc:	e000e100 	.word	0xe000e100

00001a00 <__NVIC_SetPriority>:
    1a00:	b5b0      	push	{r4, r5, r7, lr}
    1a02:	b082      	sub	sp, #8
    1a04:	af00      	add	r7, sp, #0
    1a06:	0002      	movs	r2, r0
    1a08:	6039      	str	r1, [r7, #0]
    1a0a:	1dfb      	adds	r3, r7, #7
    1a0c:	701a      	strb	r2, [r3, #0]
    1a0e:	1dfb      	adds	r3, r7, #7
    1a10:	781b      	ldrb	r3, [r3, #0]
    1a12:	2b7f      	cmp	r3, #127	; 0x7f
    1a14:	d828      	bhi.n	1a68 <__NVIC_SetPriority+0x68>
    1a16:	4c2f      	ldr	r4, [pc, #188]	; (1ad4 <__NVIC_SetPriority+0xd4>)
    1a18:	1dfb      	adds	r3, r7, #7
    1a1a:	781b      	ldrb	r3, [r3, #0]
    1a1c:	b25b      	sxtb	r3, r3
    1a1e:	089b      	lsrs	r3, r3, #2
    1a20:	492c      	ldr	r1, [pc, #176]	; (1ad4 <__NVIC_SetPriority+0xd4>)
    1a22:	1dfa      	adds	r2, r7, #7
    1a24:	7812      	ldrb	r2, [r2, #0]
    1a26:	b252      	sxtb	r2, r2
    1a28:	0892      	lsrs	r2, r2, #2
    1a2a:	32c0      	adds	r2, #192	; 0xc0
    1a2c:	0092      	lsls	r2, r2, #2
    1a2e:	5852      	ldr	r2, [r2, r1]
    1a30:	1df9      	adds	r1, r7, #7
    1a32:	7809      	ldrb	r1, [r1, #0]
    1a34:	0008      	movs	r0, r1
    1a36:	2103      	movs	r1, #3
    1a38:	4001      	ands	r1, r0
    1a3a:	00c9      	lsls	r1, r1, #3
    1a3c:	20ff      	movs	r0, #255	; 0xff
    1a3e:	4088      	lsls	r0, r1
    1a40:	0001      	movs	r1, r0
    1a42:	43c9      	mvns	r1, r1
    1a44:	4011      	ands	r1, r2
    1a46:	683a      	ldr	r2, [r7, #0]
    1a48:	0192      	lsls	r2, r2, #6
    1a4a:	20ff      	movs	r0, #255	; 0xff
    1a4c:	4010      	ands	r0, r2
    1a4e:	1dfa      	adds	r2, r7, #7
    1a50:	7812      	ldrb	r2, [r2, #0]
    1a52:	0015      	movs	r5, r2
    1a54:	2203      	movs	r2, #3
    1a56:	402a      	ands	r2, r5
    1a58:	00d2      	lsls	r2, r2, #3
    1a5a:	4090      	lsls	r0, r2
    1a5c:	0002      	movs	r2, r0
    1a5e:	430a      	orrs	r2, r1
    1a60:	33c0      	adds	r3, #192	; 0xc0
    1a62:	009b      	lsls	r3, r3, #2
    1a64:	511a      	str	r2, [r3, r4]
    1a66:	e031      	b.n	1acc <__NVIC_SetPriority+0xcc>
    1a68:	4c1b      	ldr	r4, [pc, #108]	; (1ad8 <__NVIC_SetPriority+0xd8>)
    1a6a:	1dfb      	adds	r3, r7, #7
    1a6c:	781b      	ldrb	r3, [r3, #0]
    1a6e:	001a      	movs	r2, r3
    1a70:	230f      	movs	r3, #15
    1a72:	4013      	ands	r3, r2
    1a74:	3b08      	subs	r3, #8
    1a76:	0899      	lsrs	r1, r3, #2
    1a78:	4a17      	ldr	r2, [pc, #92]	; (1ad8 <__NVIC_SetPriority+0xd8>)
    1a7a:	1dfb      	adds	r3, r7, #7
    1a7c:	781b      	ldrb	r3, [r3, #0]
    1a7e:	0018      	movs	r0, r3
    1a80:	230f      	movs	r3, #15
    1a82:	4003      	ands	r3, r0
    1a84:	3b08      	subs	r3, #8
    1a86:	089b      	lsrs	r3, r3, #2
    1a88:	3306      	adds	r3, #6
    1a8a:	009b      	lsls	r3, r3, #2
    1a8c:	18d3      	adds	r3, r2, r3
    1a8e:	3304      	adds	r3, #4
    1a90:	681b      	ldr	r3, [r3, #0]
    1a92:	1dfa      	adds	r2, r7, #7
    1a94:	7812      	ldrb	r2, [r2, #0]
    1a96:	0010      	movs	r0, r2
    1a98:	2203      	movs	r2, #3
    1a9a:	4002      	ands	r2, r0
    1a9c:	00d2      	lsls	r2, r2, #3
    1a9e:	20ff      	movs	r0, #255	; 0xff
    1aa0:	4090      	lsls	r0, r2
    1aa2:	0002      	movs	r2, r0
    1aa4:	43d2      	mvns	r2, r2
    1aa6:	401a      	ands	r2, r3
    1aa8:	683b      	ldr	r3, [r7, #0]
    1aaa:	019b      	lsls	r3, r3, #6
    1aac:	20ff      	movs	r0, #255	; 0xff
    1aae:	4018      	ands	r0, r3
    1ab0:	1dfb      	adds	r3, r7, #7
    1ab2:	781b      	ldrb	r3, [r3, #0]
    1ab4:	001d      	movs	r5, r3
    1ab6:	2303      	movs	r3, #3
    1ab8:	402b      	ands	r3, r5
    1aba:	00db      	lsls	r3, r3, #3
    1abc:	4098      	lsls	r0, r3
    1abe:	0003      	movs	r3, r0
    1ac0:	431a      	orrs	r2, r3
    1ac2:	1d8b      	adds	r3, r1, #6
    1ac4:	009b      	lsls	r3, r3, #2
    1ac6:	18e3      	adds	r3, r4, r3
    1ac8:	3304      	adds	r3, #4
    1aca:	601a      	str	r2, [r3, #0]
    1acc:	46c0      	nop			; (mov r8, r8)
    1ace:	46bd      	mov	sp, r7
    1ad0:	b002      	add	sp, #8
    1ad2:	bdb0      	pop	{r4, r5, r7, pc}
    1ad4:	e000e100 	.word	0xe000e100
    1ad8:	e000ed00 	.word	0xe000ed00

00001adc <PortConfig>:
    1adc:	b580      	push	{r7, lr}
    1ade:	af00      	add	r7, sp, #0
    1ae0:	4b44      	ldr	r3, [pc, #272]	; (1bf4 <PortConfig+0x118>)
    1ae2:	4a44      	ldr	r2, [pc, #272]	; (1bf4 <PortConfig+0x118>)
    1ae4:	68d2      	ldr	r2, [r2, #12]
    1ae6:	21de      	movs	r1, #222	; 0xde
    1ae8:	0209      	lsls	r1, r1, #8
    1aea:	430a      	orrs	r2, r1
    1aec:	60da      	str	r2, [r3, #12]
    1aee:	4b41      	ldr	r3, [pc, #260]	; (1bf4 <PortConfig+0x118>)
    1af0:	4a40      	ldr	r2, [pc, #256]	; (1bf4 <PortConfig+0x118>)
    1af2:	6812      	ldr	r2, [r2, #0]
    1af4:	4940      	ldr	r1, [pc, #256]	; (1bf8 <PortConfig+0x11c>)
    1af6:	400a      	ands	r2, r1
    1af8:	601a      	str	r2, [r3, #0]
    1afa:	4b3e      	ldr	r3, [pc, #248]	; (1bf4 <PortConfig+0x118>)
    1afc:	4a3d      	ldr	r2, [pc, #244]	; (1bf4 <PortConfig+0x118>)
    1afe:	6852      	ldr	r2, [r2, #4]
    1b00:	21de      	movs	r1, #222	; 0xde
    1b02:	0209      	lsls	r1, r1, #8
    1b04:	430a      	orrs	r2, r1
    1b06:	605a      	str	r2, [r3, #4]
    1b08:	4b3a      	ldr	r3, [pc, #232]	; (1bf4 <PortConfig+0x118>)
    1b0a:	4a3a      	ldr	r2, [pc, #232]	; (1bf4 <PortConfig+0x118>)
    1b0c:	6992      	ldr	r2, [r2, #24]
    1b0e:	493b      	ldr	r1, [pc, #236]	; (1bfc <PortConfig+0x120>)
    1b10:	430a      	orrs	r2, r1
    1b12:	619a      	str	r2, [r3, #24]
    1b14:	4b37      	ldr	r3, [pc, #220]	; (1bf4 <PortConfig+0x118>)
    1b16:	4a37      	ldr	r2, [pc, #220]	; (1bf4 <PortConfig+0x118>)
    1b18:	68d2      	ldr	r2, [r2, #12]
    1b1a:	21ff      	movs	r1, #255	; 0xff
    1b1c:	0049      	lsls	r1, r1, #1
    1b1e:	430a      	orrs	r2, r1
    1b20:	60da      	str	r2, [r3, #12]
    1b22:	4b34      	ldr	r3, [pc, #208]	; (1bf4 <PortConfig+0x118>)
    1b24:	4a33      	ldr	r2, [pc, #204]	; (1bf4 <PortConfig+0x118>)
    1b26:	6812      	ldr	r2, [r2, #0]
    1b28:	4935      	ldr	r1, [pc, #212]	; (1c00 <PortConfig+0x124>)
    1b2a:	400a      	ands	r2, r1
    1b2c:	601a      	str	r2, [r3, #0]
    1b2e:	4b31      	ldr	r3, [pc, #196]	; (1bf4 <PortConfig+0x118>)
    1b30:	4a30      	ldr	r2, [pc, #192]	; (1bf4 <PortConfig+0x118>)
    1b32:	6852      	ldr	r2, [r2, #4]
    1b34:	21ff      	movs	r1, #255	; 0xff
    1b36:	0049      	lsls	r1, r1, #1
    1b38:	430a      	orrs	r2, r1
    1b3a:	605a      	str	r2, [r3, #4]
    1b3c:	4b2d      	ldr	r3, [pc, #180]	; (1bf4 <PortConfig+0x118>)
    1b3e:	4a2d      	ldr	r2, [pc, #180]	; (1bf4 <PortConfig+0x118>)
    1b40:	6992      	ldr	r2, [r2, #24]
    1b42:	4930      	ldr	r1, [pc, #192]	; (1c04 <PortConfig+0x128>)
    1b44:	430a      	orrs	r2, r1
    1b46:	619a      	str	r2, [r3, #24]
    1b48:	4b2f      	ldr	r3, [pc, #188]	; (1c08 <PortConfig+0x12c>)
    1b4a:	4a2f      	ldr	r2, [pc, #188]	; (1c08 <PortConfig+0x12c>)
    1b4c:	6892      	ldr	r2, [r2, #8]
    1b4e:	21a0      	movs	r1, #160	; 0xa0
    1b50:	0549      	lsls	r1, r1, #21
    1b52:	430a      	orrs	r2, r1
    1b54:	609a      	str	r2, [r3, #8]
    1b56:	4b2c      	ldr	r3, [pc, #176]	; (1c08 <PortConfig+0x12c>)
    1b58:	4a2b      	ldr	r2, [pc, #172]	; (1c08 <PortConfig+0x12c>)
    1b5a:	68d2      	ldr	r2, [r2, #12]
    1b5c:	21e0      	movs	r1, #224	; 0xe0
    1b5e:	0209      	lsls	r1, r1, #8
    1b60:	430a      	orrs	r2, r1
    1b62:	60da      	str	r2, [r3, #12]
    1b64:	4b28      	ldr	r3, [pc, #160]	; (1c08 <PortConfig+0x12c>)
    1b66:	4a28      	ldr	r2, [pc, #160]	; (1c08 <PortConfig+0x12c>)
    1b68:	6992      	ldr	r2, [r2, #24]
    1b6a:	21fc      	movs	r1, #252	; 0xfc
    1b6c:	0609      	lsls	r1, r1, #24
    1b6e:	430a      	orrs	r2, r1
    1b70:	619a      	str	r2, [r3, #24]
    1b72:	4b25      	ldr	r3, [pc, #148]	; (1c08 <PortConfig+0x12c>)
    1b74:	4a24      	ldr	r2, [pc, #144]	; (1c08 <PortConfig+0x12c>)
    1b76:	6812      	ldr	r2, [r2, #0]
    1b78:	4924      	ldr	r1, [pc, #144]	; (1c0c <PortConfig+0x130>)
    1b7a:	400a      	ands	r2, r1
    1b7c:	601a      	str	r2, [r3, #0]
    1b7e:	4b22      	ldr	r3, [pc, #136]	; (1c08 <PortConfig+0x12c>)
    1b80:	4a21      	ldr	r2, [pc, #132]	; (1c08 <PortConfig+0x12c>)
    1b82:	6852      	ldr	r2, [r2, #4]
    1b84:	2180      	movs	r1, #128	; 0x80
    1b86:	0209      	lsls	r1, r1, #8
    1b88:	430a      	orrs	r2, r1
    1b8a:	605a      	str	r2, [r3, #4]
    1b8c:	4b20      	ldr	r3, [pc, #128]	; (1c10 <PortConfig+0x134>)
    1b8e:	4a20      	ldr	r2, [pc, #128]	; (1c10 <PortConfig+0x134>)
    1b90:	6892      	ldr	r2, [r2, #8]
    1b92:	4920      	ldr	r1, [pc, #128]	; (1c14 <PortConfig+0x138>)
    1b94:	400a      	ands	r2, r1
    1b96:	609a      	str	r2, [r3, #8]
    1b98:	4b1d      	ldr	r3, [pc, #116]	; (1c10 <PortConfig+0x134>)
    1b9a:	4a1d      	ldr	r2, [pc, #116]	; (1c10 <PortConfig+0x134>)
    1b9c:	6892      	ldr	r2, [r2, #8]
    1b9e:	21a0      	movs	r1, #160	; 0xa0
    1ba0:	0049      	lsls	r1, r1, #1
    1ba2:	430a      	orrs	r2, r1
    1ba4:	609a      	str	r2, [r3, #8]
    1ba6:	4b1a      	ldr	r3, [pc, #104]	; (1c10 <PortConfig+0x134>)
    1ba8:	4a19      	ldr	r2, [pc, #100]	; (1c10 <PortConfig+0x134>)
    1baa:	68d2      	ldr	r2, [r2, #12]
    1bac:	2118      	movs	r1, #24
    1bae:	430a      	orrs	r2, r1
    1bb0:	60da      	str	r2, [r3, #12]
    1bb2:	4b17      	ldr	r3, [pc, #92]	; (1c10 <PortConfig+0x134>)
    1bb4:	4a16      	ldr	r2, [pc, #88]	; (1c10 <PortConfig+0x134>)
    1bb6:	6992      	ldr	r2, [r2, #24]
    1bb8:	21f0      	movs	r1, #240	; 0xf0
    1bba:	0089      	lsls	r1, r1, #2
    1bbc:	430a      	orrs	r2, r1
    1bbe:	619a      	str	r2, [r3, #24]
    1bc0:	4b13      	ldr	r3, [pc, #76]	; (1c10 <PortConfig+0x134>)
    1bc2:	4a13      	ldr	r2, [pc, #76]	; (1c10 <PortConfig+0x134>)
    1bc4:	6812      	ldr	r2, [r2, #0]
    1bc6:	2118      	movs	r1, #24
    1bc8:	438a      	bics	r2, r1
    1bca:	601a      	str	r2, [r3, #0]
    1bcc:	4b10      	ldr	r3, [pc, #64]	; (1c10 <PortConfig+0x134>)
    1bce:	4a10      	ldr	r2, [pc, #64]	; (1c10 <PortConfig+0x134>)
    1bd0:	68d2      	ldr	r2, [r2, #12]
    1bd2:	2120      	movs	r1, #32
    1bd4:	430a      	orrs	r2, r1
    1bd6:	60da      	str	r2, [r3, #12]
    1bd8:	4b0d      	ldr	r3, [pc, #52]	; (1c10 <PortConfig+0x134>)
    1bda:	4a0d      	ldr	r2, [pc, #52]	; (1c10 <PortConfig+0x134>)
    1bdc:	6892      	ldr	r2, [r2, #8]
    1bde:	2180      	movs	r1, #128	; 0x80
    1be0:	00c9      	lsls	r1, r1, #3
    1be2:	430a      	orrs	r2, r1
    1be4:	609a      	str	r2, [r3, #8]
    1be6:	201c      	movs	r0, #28
    1be8:	f7ff feee 	bl	19c8 <__NVIC_ClearPendingIRQ>
    1bec:	46c0      	nop			; (mov r8, r8)
    1bee:	46bd      	mov	sp, r7
    1bf0:	bd80      	pop	{r7, pc}
    1bf2:	46c0      	nop			; (mov r8, r8)
    1bf4:	400b0000 	.word	0x400b0000
    1bf8:	ffff21ff 	.word	0xffff21ff
    1bfc:	f3fc0000 	.word	0xf3fc0000
    1c00:	fffffe01 	.word	0xfffffe01
    1c04:	0003fffc 	.word	0x0003fffc
    1c08:	400c0000 	.word	0x400c0000
    1c0c:	ffff1fff 	.word	0xffff1fff
    1c10:	400b8000 	.word	0x400b8000
    1c14:	fffffc3f 	.word	0xfffffc3f

00001c18 <ClkConfig>:
    1c18:	b580      	push	{r7, lr}
    1c1a:	af00      	add	r7, sp, #0
    1c1c:	4b4b      	ldr	r3, [pc, #300]	; (1d4c <ClkConfig+0x134>)
    1c1e:	2280      	movs	r2, #128	; 0x80
    1c20:	0092      	lsls	r2, r2, #2
    1c22:	619a      	str	r2, [r3, #24]
    1c24:	4b4a      	ldr	r3, [pc, #296]	; (1d50 <ClkConfig+0x138>)
    1c26:	4a4a      	ldr	r2, [pc, #296]	; (1d50 <ClkConfig+0x138>)
    1c28:	6bd2      	ldr	r2, [r2, #60]	; 0x3c
    1c2a:	2118      	movs	r1, #24
    1c2c:	430a      	orrs	r2, r1
    1c2e:	63da      	str	r2, [r3, #60]	; 0x3c
    1c30:	4b47      	ldr	r3, [pc, #284]	; (1d50 <ClkConfig+0x138>)
    1c32:	4a48      	ldr	r2, [pc, #288]	; (1d54 <ClkConfig+0x13c>)
    1c34:	649a      	str	r2, [r3, #72]	; 0x48
    1c36:	4b46      	ldr	r3, [pc, #280]	; (1d50 <ClkConfig+0x138>)
    1c38:	2201      	movs	r2, #1
    1c3a:	645a      	str	r2, [r3, #68]	; 0x44
    1c3c:	4b43      	ldr	r3, [pc, #268]	; (1d4c <ClkConfig+0x134>)
    1c3e:	4a43      	ldr	r2, [pc, #268]	; (1d4c <ClkConfig+0x134>)
    1c40:	6892      	ldr	r2, [r2, #8]
    1c42:	2105      	movs	r1, #5
    1c44:	430a      	orrs	r2, r1
    1c46:	609a      	str	r2, [r3, #8]
    1c48:	46c0      	nop			; (mov r8, r8)
    1c4a:	4b40      	ldr	r3, [pc, #256]	; (1d4c <ClkConfig+0x134>)
    1c4c:	681b      	ldr	r3, [r3, #0]
    1c4e:	220c      	movs	r2, #12
    1c50:	4013      	ands	r3, r2
    1c52:	2b0c      	cmp	r3, #12
    1c54:	d1f9      	bne.n	1c4a <ClkConfig+0x32>
    1c56:	4b3d      	ldr	r3, [pc, #244]	; (1d4c <ClkConfig+0x134>)
    1c58:	4a3c      	ldr	r2, [pc, #240]	; (1d4c <ClkConfig+0x134>)
    1c5a:	68d2      	ldr	r2, [r2, #12]
    1c5c:	2102      	movs	r1, #2
    1c5e:	430a      	orrs	r2, r1
    1c60:	60da      	str	r2, [r3, #12]
    1c62:	4b3a      	ldr	r3, [pc, #232]	; (1d4c <ClkConfig+0x134>)
    1c64:	4a3c      	ldr	r2, [pc, #240]	; (1d58 <ClkConfig+0x140>)
    1c66:	605a      	str	r2, [r3, #4]
    1c68:	46c0      	nop			; (mov r8, r8)
    1c6a:	4b38      	ldr	r3, [pc, #224]	; (1d4c <ClkConfig+0x134>)
    1c6c:	681b      	ldr	r3, [r3, #0]
    1c6e:	2202      	movs	r2, #2
    1c70:	4013      	ands	r3, r2
    1c72:	d0fa      	beq.n	1c6a <ClkConfig+0x52>
    1c74:	4b35      	ldr	r3, [pc, #212]	; (1d4c <ClkConfig+0x134>)
    1c76:	4a35      	ldr	r2, [pc, #212]	; (1d4c <ClkConfig+0x134>)
    1c78:	69d2      	ldr	r2, [r2, #28]
    1c7a:	2108      	movs	r1, #8
    1c7c:	430a      	orrs	r2, r1
    1c7e:	61da      	str	r2, [r3, #28]
    1c80:	4b36      	ldr	r3, [pc, #216]	; (1d5c <ClkConfig+0x144>)
    1c82:	4a36      	ldr	r2, [pc, #216]	; (1d5c <ClkConfig+0x144>)
    1c84:	6812      	ldr	r2, [r2, #0]
    1c86:	2118      	movs	r1, #24
    1c88:	430a      	orrs	r2, r1
    1c8a:	601a      	str	r2, [r3, #0]
    1c8c:	4b2f      	ldr	r3, [pc, #188]	; (1d4c <ClkConfig+0x134>)
    1c8e:	4a2f      	ldr	r2, [pc, #188]	; (1d4c <ClkConfig+0x134>)
    1c90:	69d2      	ldr	r2, [r2, #28]
    1c92:	2108      	movs	r1, #8
    1c94:	438a      	bics	r2, r1
    1c96:	61da      	str	r2, [r3, #28]
    1c98:	4b2c      	ldr	r3, [pc, #176]	; (1d4c <ClkConfig+0x134>)
    1c9a:	4a2c      	ldr	r2, [pc, #176]	; (1d4c <ClkConfig+0x134>)
    1c9c:	68d2      	ldr	r2, [r2, #12]
    1c9e:	2180      	movs	r1, #128	; 0x80
    1ca0:	0049      	lsls	r1, r1, #1
    1ca2:	430a      	orrs	r2, r1
    1ca4:	60da      	str	r2, [r3, #12]
    1ca6:	4b29      	ldr	r3, [pc, #164]	; (1d4c <ClkConfig+0x134>)
    1ca8:	4a28      	ldr	r2, [pc, #160]	; (1d4c <ClkConfig+0x134>)
    1caa:	68d2      	ldr	r2, [r2, #12]
    1cac:	2104      	movs	r1, #4
    1cae:	430a      	orrs	r2, r1
    1cb0:	60da      	str	r2, [r3, #12]
    1cb2:	4b26      	ldr	r3, [pc, #152]	; (1d4c <ClkConfig+0x134>)
    1cb4:	22e4      	movs	r2, #228	; 0xe4
    1cb6:	0592      	lsls	r2, r2, #22
    1cb8:	635a      	str	r2, [r3, #52]	; 0x34
    1cba:	4b24      	ldr	r3, [pc, #144]	; (1d4c <ClkConfig+0x134>)
    1cbc:	4a23      	ldr	r2, [pc, #140]	; (1d4c <ClkConfig+0x134>)
    1cbe:	6a52      	ldr	r2, [r2, #36]	; 0x24
    1cc0:	2180      	movs	r1, #128	; 0x80
    1cc2:	0449      	lsls	r1, r1, #17
    1cc4:	430a      	orrs	r2, r1
    1cc6:	625a      	str	r2, [r3, #36]	; 0x24
    1cc8:	4b20      	ldr	r3, [pc, #128]	; (1d4c <ClkConfig+0x134>)
    1cca:	4a20      	ldr	r2, [pc, #128]	; (1d4c <ClkConfig+0x134>)
    1ccc:	6a52      	ldr	r2, [r2, #36]	; 0x24
    1cce:	21ff      	movs	r1, #255	; 0xff
    1cd0:	438a      	bics	r2, r1
    1cd2:	625a      	str	r2, [r3, #36]	; 0x24
    1cd4:	4b1d      	ldr	r3, [pc, #116]	; (1d4c <ClkConfig+0x134>)
    1cd6:	4a1d      	ldr	r2, [pc, #116]	; (1d4c <ClkConfig+0x134>)
    1cd8:	6a52      	ldr	r2, [r2, #36]	; 0x24
    1cda:	2180      	movs	r1, #128	; 0x80
    1cdc:	0489      	lsls	r1, r1, #18
    1cde:	430a      	orrs	r2, r1
    1ce0:	625a      	str	r2, [r3, #36]	; 0x24
    1ce2:	4b1a      	ldr	r3, [pc, #104]	; (1d4c <ClkConfig+0x134>)
    1ce4:	4a19      	ldr	r2, [pc, #100]	; (1d4c <ClkConfig+0x134>)
    1ce6:	6a52      	ldr	r2, [r2, #36]	; 0x24
    1ce8:	491d      	ldr	r1, [pc, #116]	; (1d60 <ClkConfig+0x148>)
    1cea:	400a      	ands	r2, r1
    1cec:	625a      	str	r2, [r3, #36]	; 0x24
    1cee:	4b17      	ldr	r3, [pc, #92]	; (1d4c <ClkConfig+0x134>)
    1cf0:	4a16      	ldr	r2, [pc, #88]	; (1d4c <ClkConfig+0x134>)
    1cf2:	69d2      	ldr	r2, [r2, #28]
    1cf4:	491b      	ldr	r1, [pc, #108]	; (1d64 <ClkConfig+0x14c>)
    1cf6:	430a      	orrs	r2, r1
    1cf8:	61da      	str	r2, [r3, #28]
    1cfa:	4b14      	ldr	r3, [pc, #80]	; (1d4c <ClkConfig+0x134>)
    1cfc:	4a13      	ldr	r2, [pc, #76]	; (1d4c <ClkConfig+0x134>)
    1cfe:	69d2      	ldr	r2, [r2, #28]
    1d00:	2180      	movs	r1, #128	; 0x80
    1d02:	430a      	orrs	r2, r1
    1d04:	61da      	str	r2, [r3, #28]
    1d06:	4b11      	ldr	r3, [pc, #68]	; (1d4c <ClkConfig+0x134>)
    1d08:	4a10      	ldr	r2, [pc, #64]	; (1d4c <ClkConfig+0x134>)
    1d0a:	6a92      	ldr	r2, [r2, #40]	; 0x28
    1d0c:	2180      	movs	r1, #128	; 0x80
    1d0e:	0489      	lsls	r1, r1, #18
    1d10:	430a      	orrs	r2, r1
    1d12:	629a      	str	r2, [r3, #40]	; 0x28
    1d14:	4b0d      	ldr	r3, [pc, #52]	; (1d4c <ClkConfig+0x134>)
    1d16:	4a0d      	ldr	r2, [pc, #52]	; (1d4c <ClkConfig+0x134>)
    1d18:	6a92      	ldr	r2, [r2, #40]	; 0x28
    1d1a:	4911      	ldr	r1, [pc, #68]	; (1d60 <ClkConfig+0x148>)
    1d1c:	400a      	ands	r2, r1
    1d1e:	629a      	str	r2, [r3, #40]	; 0x28
    1d20:	4b0a      	ldr	r3, [pc, #40]	; (1d4c <ClkConfig+0x134>)
    1d22:	4a0a      	ldr	r2, [pc, #40]	; (1d4c <ClkConfig+0x134>)
    1d24:	69d2      	ldr	r2, [r2, #28]
    1d26:	2140      	movs	r1, #64	; 0x40
    1d28:	430a      	orrs	r2, r1
    1d2a:	61da      	str	r2, [r3, #28]
    1d2c:	4b07      	ldr	r3, [pc, #28]	; (1d4c <ClkConfig+0x134>)
    1d2e:	4a07      	ldr	r2, [pc, #28]	; (1d4c <ClkConfig+0x134>)
    1d30:	6a92      	ldr	r2, [r2, #40]	; 0x28
    1d32:	2180      	movs	r1, #128	; 0x80
    1d34:	0449      	lsls	r1, r1, #17
    1d36:	430a      	orrs	r2, r1
    1d38:	629a      	str	r2, [r3, #40]	; 0x28
    1d3a:	4b04      	ldr	r3, [pc, #16]	; (1d4c <ClkConfig+0x134>)
    1d3c:	4a03      	ldr	r2, [pc, #12]	; (1d4c <ClkConfig+0x134>)
    1d3e:	6a92      	ldr	r2, [r2, #40]	; 0x28
    1d40:	21ff      	movs	r1, #255	; 0xff
    1d42:	438a      	bics	r2, r1
    1d44:	629a      	str	r2, [r3, #40]	; 0x28
    1d46:	46c0      	nop			; (mov r8, r8)
    1d48:	46bd      	mov	sp, r7
    1d4a:	bd80      	pop	{r7, pc}
    1d4c:	40020000 	.word	0x40020000
    1d50:	400d8000 	.word	0x400d8000
    1d54:	000fffff 	.word	0x000fffff
    1d58:	00000b04 	.word	0x00000b04
    1d5c:	40018000 	.word	0x40018000
    1d60:	ffff00ff 	.word	0xffff00ff
    1d64:	03c0c000 	.word	0x03c0c000

00001d68 <TimerConfig>:
    1d68:	b580      	push	{r7, lr}
    1d6a:	af00      	add	r7, sp, #0
    1d6c:	4b19      	ldr	r3, [pc, #100]	; (1dd4 <TimerConfig+0x6c>)
    1d6e:	2200      	movs	r2, #0
    1d70:	601a      	str	r2, [r3, #0]
    1d72:	4b18      	ldr	r3, [pc, #96]	; (1dd4 <TimerConfig+0x6c>)
    1d74:	225f      	movs	r2, #95	; 0x5f
    1d76:	605a      	str	r2, [r3, #4]
    1d78:	4b16      	ldr	r3, [pc, #88]	; (1dd4 <TimerConfig+0x6c>)
    1d7a:	4a17      	ldr	r2, [pc, #92]	; (1dd8 <TimerConfig+0x70>)
    1d7c:	609a      	str	r2, [r3, #8]
    1d7e:	4b15      	ldr	r3, [pc, #84]	; (1dd4 <TimerConfig+0x6c>)
    1d80:	4a14      	ldr	r2, [pc, #80]	; (1dd4 <TimerConfig+0x6c>)
    1d82:	6d92      	ldr	r2, [r2, #88]	; 0x58
    1d84:	2102      	movs	r1, #2
    1d86:	430a      	orrs	r2, r1
    1d88:	659a      	str	r2, [r3, #88]	; 0x58
    1d8a:	4b12      	ldr	r3, [pc, #72]	; (1dd4 <TimerConfig+0x6c>)
    1d8c:	4a11      	ldr	r2, [pc, #68]	; (1dd4 <TimerConfig+0x6c>)
    1d8e:	68d2      	ldr	r2, [r2, #12]
    1d90:	2101      	movs	r1, #1
    1d92:	430a      	orrs	r2, r1
    1d94:	60da      	str	r2, [r3, #12]
    1d96:	200e      	movs	r0, #14
    1d98:	f7ff fdfc 	bl	1994 <__NVIC_EnableIRQ>
    1d9c:	4b0f      	ldr	r3, [pc, #60]	; (1ddc <TimerConfig+0x74>)
    1d9e:	2200      	movs	r2, #0
    1da0:	601a      	str	r2, [r3, #0]
    1da2:	4b0e      	ldr	r3, [pc, #56]	; (1ddc <TimerConfig+0x74>)
    1da4:	225f      	movs	r2, #95	; 0x5f
    1da6:	605a      	str	r2, [r3, #4]
    1da8:	4b0c      	ldr	r3, [pc, #48]	; (1ddc <TimerConfig+0x74>)
    1daa:	22ee      	movs	r2, #238	; 0xee
    1dac:	0092      	lsls	r2, r2, #2
    1dae:	609a      	str	r2, [r3, #8]
    1db0:	4b0a      	ldr	r3, [pc, #40]	; (1ddc <TimerConfig+0x74>)
    1db2:	4a0a      	ldr	r2, [pc, #40]	; (1ddc <TimerConfig+0x74>)
    1db4:	6d92      	ldr	r2, [r2, #88]	; 0x58
    1db6:	2102      	movs	r1, #2
    1db8:	430a      	orrs	r2, r1
    1dba:	659a      	str	r2, [r3, #88]	; 0x58
    1dbc:	4b07      	ldr	r3, [pc, #28]	; (1ddc <TimerConfig+0x74>)
    1dbe:	4a07      	ldr	r2, [pc, #28]	; (1ddc <TimerConfig+0x74>)
    1dc0:	68d2      	ldr	r2, [r2, #12]
    1dc2:	2101      	movs	r1, #1
    1dc4:	430a      	orrs	r2, r1
    1dc6:	60da      	str	r2, [r3, #12]
    1dc8:	200f      	movs	r0, #15
    1dca:	f7ff fde3 	bl	1994 <__NVIC_EnableIRQ>
    1dce:	46c0      	nop			; (mov r8, r8)
    1dd0:	46bd      	mov	sp, r7
    1dd2:	bd80      	pop	{r7, pc}
    1dd4:	40070000 	.word	0x40070000
    1dd8:	0001869f 	.word	0x0001869f
    1ddc:	40078000 	.word	0x40078000

00001de0 <SystemInit>:
    1de0:	b580      	push	{r7, lr}
    1de2:	af00      	add	r7, sp, #0
    1de4:	f7ff ff18 	bl	1c18 <ClkConfig>
    1de8:	f7ff fe78 	bl	1adc <PortConfig>
    1dec:	f7ff ffbc 	bl	1d68 <TimerConfig>
    1df0:	2100      	movs	r1, #0
    1df2:	2012      	movs	r0, #18
    1df4:	f7ff fe04 	bl	1a00 <__NVIC_SetPriority>
    1df8:	2101      	movs	r1, #1
    1dfa:	200e      	movs	r0, #14
    1dfc:	f7ff fe00 	bl	1a00 <__NVIC_SetPriority>
    1e00:	2301      	movs	r3, #1
    1e02:	425b      	negs	r3, r3
    1e04:	2103      	movs	r1, #3
    1e06:	0018      	movs	r0, r3
    1e08:	f7ff fdfa 	bl	1a00 <__NVIC_SetPriority>
    1e0c:	46c0      	nop			; (mov r8, r8)
    1e0e:	46bd      	mov	sp, r7
    1e10:	bd80      	pop	{r7, pc}
    1e12:	46c0      	nop			; (mov r8, r8)

00001e14 <__NVIC_EnableIRQ>:
    1e14:	b580      	push	{r7, lr}
    1e16:	b082      	sub	sp, #8
    1e18:	af00      	add	r7, sp, #0
    1e1a:	0002      	movs	r2, r0
    1e1c:	1dfb      	adds	r3, r7, #7
    1e1e:	701a      	strb	r2, [r3, #0]
    1e20:	1dfb      	adds	r3, r7, #7
    1e22:	781b      	ldrb	r3, [r3, #0]
    1e24:	2b7f      	cmp	r3, #127	; 0x7f
    1e26:	d809      	bhi.n	1e3c <__NVIC_EnableIRQ+0x28>
    1e28:	4b06      	ldr	r3, [pc, #24]	; (1e44 <__NVIC_EnableIRQ+0x30>)
    1e2a:	1dfa      	adds	r2, r7, #7
    1e2c:	7812      	ldrb	r2, [r2, #0]
    1e2e:	0011      	movs	r1, r2
    1e30:	221f      	movs	r2, #31
    1e32:	400a      	ands	r2, r1
    1e34:	2101      	movs	r1, #1
    1e36:	4091      	lsls	r1, r2
    1e38:	000a      	movs	r2, r1
    1e3a:	601a      	str	r2, [r3, #0]
    1e3c:	46c0      	nop			; (mov r8, r8)
    1e3e:	46bd      	mov	sp, r7
    1e40:	b002      	add	sp, #8
    1e42:	bd80      	pop	{r7, pc}
    1e44:	e000e100 	.word	0xe000e100

00001e48 <RemoteMacInit>:
    1e48:	b580      	push	{r7, lr}
    1e4a:	af00      	add	r7, sp, #0
    1e4c:	4b0a      	ldr	r3, [pc, #40]	; (1e78 <RemoteMacInit+0x30>)
    1e4e:	2200      	movs	r2, #0
    1e50:	801a      	strh	r2, [r3, #0]
    1e52:	4b09      	ldr	r3, [pc, #36]	; (1e78 <RemoteMacInit+0x30>)
    1e54:	2200      	movs	r2, #0
    1e56:	805a      	strh	r2, [r3, #2]
    1e58:	4b07      	ldr	r3, [pc, #28]	; (1e78 <RemoteMacInit+0x30>)
    1e5a:	2200      	movs	r2, #0
    1e5c:	809a      	strh	r2, [r3, #4]
    1e5e:	4b06      	ldr	r3, [pc, #24]	; (1e78 <RemoteMacInit+0x30>)
    1e60:	2200      	movs	r2, #0
    1e62:	80da      	strh	r2, [r3, #6]
    1e64:	4b04      	ldr	r3, [pc, #16]	; (1e78 <RemoteMacInit+0x30>)
    1e66:	2200      	movs	r2, #0
    1e68:	811a      	strh	r2, [r3, #8]
    1e6a:	4b03      	ldr	r3, [pc, #12]	; (1e78 <RemoteMacInit+0x30>)
    1e6c:	2200      	movs	r2, #0
    1e6e:	815a      	strh	r2, [r3, #10]
    1e70:	46c0      	nop			; (mov r8, r8)
    1e72:	46bd      	mov	sp, r7
    1e74:	bd80      	pop	{r7, pc}
    1e76:	46c0      	nop			; (mov r8, r8)
    1e78:	20004d1c 	.word	0x20004d1c

00001e7c <PHYInit>:
    1e7c:	b580      	push	{r7, lr}
    1e7e:	b084      	sub	sp, #16
    1e80:	af00      	add	r7, sp, #0
    1e82:	0002      	movs	r2, r0
    1e84:	1dfb      	adds	r3, r7, #7
    1e86:	701a      	strb	r2, [r3, #0]
    1e88:	1dbb      	adds	r3, r7, #6
    1e8a:	1c0a      	adds	r2, r1, #0
    1e8c:	701a      	strb	r2, [r3, #0]
    1e8e:	23c0      	movs	r3, #192	; 0xc0
    1e90:	059b      	lsls	r3, r3, #22
    1e92:	8e9b      	ldrh	r3, [r3, #52]	; 0x34
    1e94:	b29b      	uxth	r3, r3
    1e96:	60fb      	str	r3, [r7, #12]
    1e98:	68fa      	ldr	r2, [r7, #12]
    1e9a:	23ee      	movs	r3, #238	; 0xee
    1e9c:	00db      	lsls	r3, r3, #3
    1e9e:	4013      	ands	r3, r2
    1ea0:	60fb      	str	r3, [r7, #12]
    1ea2:	1dfb      	adds	r3, r7, #7
    1ea4:	781b      	ldrb	r3, [r3, #0]
    1ea6:	02da      	lsls	r2, r3, #11
    1ea8:	1dbb      	adds	r3, r7, #6
    1eaa:	781b      	ldrb	r3, [r3, #0]
    1eac:	005b      	lsls	r3, r3, #1
    1eae:	4313      	orrs	r3, r2
    1eb0:	001a      	movs	r2, r3
    1eb2:	68fb      	ldr	r3, [r7, #12]
    1eb4:	4313      	orrs	r3, r2
    1eb6:	2201      	movs	r2, #1
    1eb8:	4313      	orrs	r3, r2
    1eba:	60fb      	str	r3, [r7, #12]
    1ebc:	23c0      	movs	r3, #192	; 0xc0
    1ebe:	059b      	lsls	r3, r3, #22
    1ec0:	68fa      	ldr	r2, [r7, #12]
    1ec2:	b292      	uxth	r2, r2
    1ec4:	869a      	strh	r2, [r3, #52]	; 0x34
    1ec6:	46c0      	nop			; (mov r8, r8)
    1ec8:	23c0      	movs	r3, #192	; 0xc0
    1eca:	059b      	lsls	r3, r3, #22
    1ecc:	8edb      	ldrh	r3, [r3, #54]	; 0x36
    1ece:	b29b      	uxth	r3, r3
    1ed0:	001a      	movs	r2, r3
    1ed2:	2310      	movs	r3, #16
    1ed4:	4013      	ands	r3, r2
    1ed6:	d0f7      	beq.n	1ec8 <PHYInit+0x4c>
    1ed8:	46c0      	nop			; (mov r8, r8)
    1eda:	46bd      	mov	sp, r7
    1edc:	b004      	add	sp, #16
    1ede:	bd80      	pop	{r7, pc}

00001ee0 <SetPHYReg>:
    1ee0:	b590      	push	{r4, r7, lr}
    1ee2:	b085      	sub	sp, #20
    1ee4:	af00      	add	r7, sp, #0
    1ee6:	0004      	movs	r4, r0
    1ee8:	0008      	movs	r0, r1
    1eea:	0011      	movs	r1, r2
    1eec:	1dfb      	adds	r3, r7, #7
    1eee:	1c22      	adds	r2, r4, #0
    1ef0:	701a      	strb	r2, [r3, #0]
    1ef2:	1dbb      	adds	r3, r7, #6
    1ef4:	1c02      	adds	r2, r0, #0
    1ef6:	701a      	strb	r2, [r3, #0]
    1ef8:	1d3b      	adds	r3, r7, #4
    1efa:	1c0a      	adds	r2, r1, #0
    1efc:	801a      	strh	r2, [r3, #0]
    1efe:	23c0      	movs	r3, #192	; 0xc0
    1f00:	059b      	lsls	r3, r3, #22
    1f02:	1d3a      	adds	r2, r7, #4
    1f04:	8812      	ldrh	r2, [r2, #0]
    1f06:	84da      	strh	r2, [r3, #38]	; 0x26
    1f08:	1dfb      	adds	r3, r7, #7
    1f0a:	781b      	ldrb	r3, [r3, #0]
    1f0c:	021a      	lsls	r2, r3, #8
    1f0e:	23f8      	movs	r3, #248	; 0xf8
    1f10:	015b      	lsls	r3, r3, #5
    1f12:	4013      	ands	r3, r2
    1f14:	22c0      	movs	r2, #192	; 0xc0
    1f16:	0212      	lsls	r2, r2, #8
    1f18:	431a      	orrs	r2, r3
    1f1a:	1dbb      	adds	r3, r7, #6
    1f1c:	781b      	ldrb	r3, [r3, #0]
    1f1e:	211f      	movs	r1, #31
    1f20:	400b      	ands	r3, r1
    1f22:	4313      	orrs	r3, r2
    1f24:	2220      	movs	r2, #32
    1f26:	4313      	orrs	r3, r2
    1f28:	60fb      	str	r3, [r7, #12]
    1f2a:	23c0      	movs	r3, #192	; 0xc0
    1f2c:	059b      	lsls	r3, r3, #22
    1f2e:	68fa      	ldr	r2, [r7, #12]
    1f30:	b292      	uxth	r2, r2
    1f32:	849a      	strh	r2, [r3, #36]	; 0x24
    1f34:	46c0      	nop			; (mov r8, r8)
    1f36:	23c0      	movs	r3, #192	; 0xc0
    1f38:	059b      	lsls	r3, r3, #22
    1f3a:	8c9b      	ldrh	r3, [r3, #36]	; 0x24
    1f3c:	b29b      	uxth	r3, r3
    1f3e:	b21b      	sxth	r3, r3
    1f40:	2b00      	cmp	r3, #0
    1f42:	daf8      	bge.n	1f36 <SetPHYReg+0x56>
    1f44:	46c0      	nop			; (mov r8, r8)
    1f46:	46bd      	mov	sp, r7
    1f48:	b005      	add	sp, #20
    1f4a:	bd90      	pop	{r4, r7, pc}

00001f4c <GetPHYReg>:
    1f4c:	b580      	push	{r7, lr}
    1f4e:	b084      	sub	sp, #16
    1f50:	af00      	add	r7, sp, #0
    1f52:	0002      	movs	r2, r0
    1f54:	1dfb      	adds	r3, r7, #7
    1f56:	701a      	strb	r2, [r3, #0]
    1f58:	1dbb      	adds	r3, r7, #6
    1f5a:	1c0a      	adds	r2, r1, #0
    1f5c:	701a      	strb	r2, [r3, #0]
    1f5e:	1dfb      	adds	r3, r7, #7
    1f60:	781b      	ldrb	r3, [r3, #0]
    1f62:	021a      	lsls	r2, r3, #8
    1f64:	23f8      	movs	r3, #248	; 0xf8
    1f66:	015b      	lsls	r3, r3, #5
    1f68:	4013      	ands	r3, r2
    1f6a:	4a0e      	ldr	r2, [pc, #56]	; (1fa4 <GetPHYReg+0x58>)
    1f6c:	431a      	orrs	r2, r3
    1f6e:	1dbb      	adds	r3, r7, #6
    1f70:	781b      	ldrb	r3, [r3, #0]
    1f72:	211f      	movs	r1, #31
    1f74:	400b      	ands	r3, r1
    1f76:	4313      	orrs	r3, r2
    1f78:	60fb      	str	r3, [r7, #12]
    1f7a:	23c0      	movs	r3, #192	; 0xc0
    1f7c:	059b      	lsls	r3, r3, #22
    1f7e:	68fa      	ldr	r2, [r7, #12]
    1f80:	b292      	uxth	r2, r2
    1f82:	849a      	strh	r2, [r3, #36]	; 0x24
    1f84:	46c0      	nop			; (mov r8, r8)
    1f86:	23c0      	movs	r3, #192	; 0xc0
    1f88:	059b      	lsls	r3, r3, #22
    1f8a:	8c9b      	ldrh	r3, [r3, #36]	; 0x24
    1f8c:	b29b      	uxth	r3, r3
    1f8e:	b21b      	sxth	r3, r3
    1f90:	2b00      	cmp	r3, #0
    1f92:	daf8      	bge.n	1f86 <GetPHYReg+0x3a>
    1f94:	23c0      	movs	r3, #192	; 0xc0
    1f96:	059b      	lsls	r3, r3, #22
    1f98:	8cdb      	ldrh	r3, [r3, #38]	; 0x26
    1f9a:	b29b      	uxth	r3, r3
    1f9c:	0018      	movs	r0, r3
    1f9e:	46bd      	mov	sp, r7
    1fa0:	b004      	add	sp, #16
    1fa2:	bd80      	pop	{r7, pc}
    1fa4:	0000e020 	.word	0x0000e020

00001fa8 <EthernetConfig>:
    1fa8:	b580      	push	{r7, lr}
    1faa:	b082      	sub	sp, #8
    1fac:	af00      	add	r7, sp, #0
    1fae:	2103      	movs	r1, #3
    1fb0:	201c      	movs	r0, #28
    1fb2:	f7ff ff63 	bl	1e7c <PHYInit>
    1fb6:	23c0      	movs	r3, #192	; 0xc0
    1fb8:	059b      	lsls	r3, r3, #22
    1fba:	4a12      	ldr	r2, [pc, #72]	; (2004 <EthernetConfig+0x5c>)
    1fbc:	8812      	ldrh	r2, [r2, #0]
    1fbe:	805a      	strh	r2, [r3, #2]
    1fc0:	23c0      	movs	r3, #192	; 0xc0
    1fc2:	059b      	lsls	r3, r3, #22
    1fc4:	4a0f      	ldr	r2, [pc, #60]	; (2004 <EthernetConfig+0x5c>)
    1fc6:	8852      	ldrh	r2, [r2, #2]
    1fc8:	809a      	strh	r2, [r3, #4]
    1fca:	23c0      	movs	r3, #192	; 0xc0
    1fcc:	059b      	lsls	r3, r3, #22
    1fce:	4a0d      	ldr	r2, [pc, #52]	; (2004 <EthernetConfig+0x5c>)
    1fd0:	8892      	ldrh	r2, [r2, #4]
    1fd2:	80da      	strh	r2, [r3, #6]
    1fd4:	f000 f81e 	bl	2014 <MACReset>
    1fd8:	23c0      	movs	r3, #192	; 0xc0
    1fda:	059b      	lsls	r3, r3, #22
    1fdc:	2207      	movs	r2, #7
    1fde:	841a      	strh	r2, [r3, #32]
    1fe0:	2012      	movs	r0, #18
    1fe2:	f7ff ff17 	bl	1e14 <__NVIC_EnableIRQ>
    1fe6:	4b08      	ldr	r3, [pc, #32]	; (2008 <EthernetConfig+0x60>)
    1fe8:	6c1b      	ldr	r3, [r3, #64]	; 0x40
    1fea:	607b      	str	r3, [r7, #4]
    1fec:	687b      	ldr	r3, [r7, #4]
    1fee:	b29a      	uxth	r2, r3
    1ff0:	4b06      	ldr	r3, [pc, #24]	; (200c <EthernetConfig+0x64>)
    1ff2:	801a      	strh	r2, [r3, #0]
    1ff4:	687b      	ldr	r3, [r7, #4]
    1ff6:	b29a      	uxth	r2, r3
    1ff8:	4b05      	ldr	r3, [pc, #20]	; (2010 <EthernetConfig+0x68>)
    1ffa:	801a      	strh	r2, [r3, #0]
    1ffc:	46c0      	nop			; (mov r8, r8)
    1ffe:	46bd      	mov	sp, r7
    2000:	b002      	add	sp, #8
    2002:	bd80      	pop	{r7, pc}
    2004:	20000004 	.word	0x20000004
    2008:	400d8000 	.word	0x400d8000
    200c:	20004d30 	.word	0x20004d30
    2010:	20004d32 	.word	0x20004d32

00002014 <MACReset>:
    2014:	b580      	push	{r7, lr}
    2016:	af00      	add	r7, sp, #0
    2018:	23c0      	movs	r3, #192	; 0xc0
    201a:	059b      	lsls	r3, r3, #22
    201c:	22c0      	movs	r2, #192	; 0xc0
    201e:	0592      	lsls	r2, r2, #22
    2020:	8bd2      	ldrh	r2, [r2, #30]
    2022:	b292      	uxth	r2, r2
    2024:	2103      	movs	r1, #3
    2026:	430a      	orrs	r2, r1
    2028:	b292      	uxth	r2, r2
    202a:	83da      	strh	r2, [r3, #30]
    202c:	f000 f86a 	bl	2104 <ClearMemory>
    2030:	23c0      	movs	r3, #192	; 0xc0
    2032:	059b      	lsls	r3, r3, #22
    2034:	2280      	movs	r2, #128	; 0x80
    2036:	0152      	lsls	r2, r2, #5
    2038:	801a      	strh	r2, [r3, #0]
    203a:	23c0      	movs	r3, #192	; 0xc0
    203c:	059b      	lsls	r3, r3, #22
    203e:	2200      	movs	r2, #0
    2040:	811a      	strh	r2, [r3, #8]
    2042:	23c0      	movs	r3, #192	; 0xc0
    2044:	059b      	lsls	r3, r3, #22
    2046:	2200      	movs	r2, #0
    2048:	815a      	strh	r2, [r3, #10]
    204a:	23c0      	movs	r3, #192	; 0xc0
    204c:	059b      	lsls	r3, r3, #22
    204e:	2200      	movs	r2, #0
    2050:	819a      	strh	r2, [r3, #12]
    2052:	23c0      	movs	r3, #192	; 0xc0
    2054:	059b      	lsls	r3, r3, #22
    2056:	4a26      	ldr	r2, [pc, #152]	; (20f0 <MACReset+0xdc>)
    2058:	81da      	strh	r2, [r3, #14]
    205a:	23c0      	movs	r3, #192	; 0xc0
    205c:	059b      	lsls	r3, r3, #22
    205e:	2260      	movs	r2, #96	; 0x60
    2060:	821a      	strh	r2, [r3, #16]
    2062:	23c0      	movs	r3, #192	; 0xc0
    2064:	059b      	lsls	r3, r3, #22
    2066:	2250      	movs	r2, #80	; 0x50
    2068:	825a      	strh	r2, [r3, #18]
    206a:	23c0      	movs	r3, #192	; 0xc0
    206c:	059b      	lsls	r3, r3, #22
    206e:	2280      	movs	r2, #128	; 0x80
    2070:	0092      	lsls	r2, r2, #2
    2072:	829a      	strh	r2, [r3, #20]
    2074:	23c0      	movs	r3, #192	; 0xc0
    2076:	059b      	lsls	r3, r3, #22
    2078:	2205      	movs	r2, #5
    207a:	82da      	strh	r2, [r3, #22]
    207c:	23c0      	movs	r3, #192	; 0xc0
    207e:	059b      	lsls	r3, r3, #22
    2080:	4a1c      	ldr	r2, [pc, #112]	; (20f4 <MACReset+0xe0>)
    2082:	831a      	strh	r2, [r3, #24]
    2084:	23c0      	movs	r3, #192	; 0xc0
    2086:	059b      	lsls	r3, r3, #22
    2088:	4a1b      	ldr	r2, [pc, #108]	; (20f8 <MACReset+0xe4>)
    208a:	835a      	strh	r2, [r3, #26]
    208c:	23c0      	movs	r3, #192	; 0xc0
    208e:	059b      	lsls	r3, r3, #22
    2090:	2280      	movs	r2, #128	; 0x80
    2092:	839a      	strh	r2, [r3, #28]
    2094:	23c0      	movs	r3, #192	; 0xc0
    2096:	059b      	lsls	r3, r3, #22
    2098:	4a18      	ldr	r2, [pc, #96]	; (20fc <MACReset+0xe8>)
    209a:	83da      	strh	r2, [r3, #30]
    209c:	23c0      	movs	r3, #192	; 0xc0
    209e:	059b      	lsls	r3, r3, #22
    20a0:	2200      	movs	r2, #0
    20a2:	841a      	strh	r2, [r3, #32]
    20a4:	23c0      	movs	r3, #192	; 0xc0
    20a6:	059b      	lsls	r3, r3, #22
    20a8:	2201      	movs	r2, #1
    20aa:	4252      	negs	r2, r2
    20ac:	845a      	strh	r2, [r3, #34]	; 0x22
    20ae:	23c0      	movs	r3, #192	; 0xc0
    20b0:	059b      	lsls	r3, r3, #22
    20b2:	2200      	movs	r2, #0
    20b4:	851a      	strh	r2, [r3, #40]	; 0x28
    20b6:	23c0      	movs	r3, #192	; 0xc0
    20b8:	059b      	lsls	r3, r3, #22
    20ba:	2280      	movs	r2, #128	; 0x80
    20bc:	0152      	lsls	r2, r2, #5
    20be:	855a      	strh	r2, [r3, #42]	; 0x2a
    20c0:	23c0      	movs	r3, #192	; 0xc0
    20c2:	059b      	lsls	r3, r3, #22
    20c4:	22c0      	movs	r2, #192	; 0xc0
    20c6:	0592      	lsls	r2, r2, #22
    20c8:	8b92      	ldrh	r2, [r2, #28]
    20ca:	b292      	uxth	r2, r2
    20cc:	490c      	ldr	r1, [pc, #48]	; (2100 <MACReset+0xec>)
    20ce:	400a      	ands	r2, r1
    20d0:	b292      	uxth	r2, r2
    20d2:	839a      	strh	r2, [r3, #28]
    20d4:	23c0      	movs	r3, #192	; 0xc0
    20d6:	059b      	lsls	r3, r3, #22
    20d8:	22c0      	movs	r2, #192	; 0xc0
    20da:	0592      	lsls	r2, r2, #22
    20dc:	8bd2      	ldrh	r2, [r2, #30]
    20de:	b292      	uxth	r2, r2
    20e0:	2103      	movs	r1, #3
    20e2:	438a      	bics	r2, r1
    20e4:	b292      	uxth	r2, r2
    20e6:	83da      	strh	r2, [r3, #30]
    20e8:	46c0      	nop			; (mov r8, r8)
    20ea:	46bd      	mov	sp, r7
    20ec:	bd80      	pop	{r7, pc}
    20ee:	46c0      	nop			; (mov r8, r8)
    20f0:	ffff8000 	.word	0xffff8000
    20f4:	ffff8606 	.word	0xffff8606
    20f8:	ffff81fa 	.word	0xffff81fa
    20fc:	00003003 	.word	0x00003003
    2100:	ffffbfff 	.word	0xffffbfff

00002104 <ClearMemory>:
    2104:	b580      	push	{r7, lr}
    2106:	b082      	sub	sp, #8
    2108:	af00      	add	r7, sp, #0
    210a:	23e0      	movs	r3, #224	; 0xe0
    210c:	059b      	lsls	r3, r3, #22
    210e:	603b      	str	r3, [r7, #0]
    2110:	2300      	movs	r3, #0
    2112:	607b      	str	r3, [r7, #4]
    2114:	e007      	b.n	2126 <ClearMemory+0x22>
    2116:	683b      	ldr	r3, [r7, #0]
    2118:	1d1a      	adds	r2, r3, #4
    211a:	603a      	str	r2, [r7, #0]
    211c:	2200      	movs	r2, #0
    211e:	601a      	str	r2, [r3, #0]
    2120:	687b      	ldr	r3, [r7, #4]
    2122:	3301      	adds	r3, #1
    2124:	607b      	str	r3, [r7, #4]
    2126:	687b      	ldr	r3, [r7, #4]
    2128:	4a03      	ldr	r2, [pc, #12]	; (2138 <ClearMemory+0x34>)
    212a:	4293      	cmp	r3, r2
    212c:	d9f3      	bls.n	2116 <ClearMemory+0x12>
    212e:	46c0      	nop			; (mov r8, r8)
    2130:	46bd      	mov	sp, r7
    2132:	b002      	add	sp, #8
    2134:	bd80      	pop	{r7, pc}
    2136:	46c0      	nop			; (mov r8, r8)
    2138:	000007ff 	.word	0x000007ff

0000213c <ReadPacket>:
    213c:	b580      	push	{r7, lr}
    213e:	b08a      	sub	sp, #40	; 0x28
    2140:	af00      	add	r7, sp, #0
    2142:	6078      	str	r0, [r7, #4]
    2144:	2316      	movs	r3, #22
    2146:	18fb      	adds	r3, r7, r3
    2148:	2200      	movs	r2, #0
    214a:	801a      	strh	r2, [r3, #0]
    214c:	2326      	movs	r3, #38	; 0x26
    214e:	18fb      	adds	r3, r7, r3
    2150:	2200      	movs	r2, #0
    2152:	801a      	strh	r2, [r3, #0]
    2154:	4b71      	ldr	r3, [pc, #452]	; (231c <ReadPacket+0x1e0>)
    2156:	681a      	ldr	r2, [r3, #0]
    2158:	2301      	movs	r3, #1
    215a:	425b      	negs	r3, r3
    215c:	0019      	movs	r1, r3
    215e:	0010      	movs	r0, r2
    2160:	f004 f964 	bl	642c <osMutexWait>
    2164:	23c0      	movs	r3, #192	; 0xc0
    2166:	059a      	lsls	r2, r3, #22
    2168:	2314      	movs	r3, #20
    216a:	18fb      	adds	r3, r7, r3
    216c:	8d92      	ldrh	r2, [r2, #44]	; 0x2c
    216e:	801a      	strh	r2, [r3, #0]
    2170:	23c0      	movs	r3, #192	; 0xc0
    2172:	059a      	lsls	r2, r3, #22
    2174:	2312      	movs	r3, #18
    2176:	18fb      	adds	r3, r7, r3
    2178:	8d12      	ldrh	r2, [r2, #40]	; 0x28
    217a:	801a      	strh	r2, [r3, #0]
    217c:	2314      	movs	r3, #20
    217e:	18fa      	adds	r2, r7, r3
    2180:	2312      	movs	r3, #18
    2182:	18fb      	adds	r3, r7, r3
    2184:	8812      	ldrh	r2, [r2, #0]
    2186:	881b      	ldrh	r3, [r3, #0]
    2188:	429a      	cmp	r2, r3
    218a:	d90e      	bls.n	21aa <ReadPacket+0x6e>
    218c:	2326      	movs	r3, #38	; 0x26
    218e:	18fb      	adds	r3, r7, r3
    2190:	2214      	movs	r2, #20
    2192:	18b9      	adds	r1, r7, r2
    2194:	2212      	movs	r2, #18
    2196:	18ba      	adds	r2, r7, r2
    2198:	8809      	ldrh	r1, [r1, #0]
    219a:	8812      	ldrh	r2, [r2, #0]
    219c:	1a8a      	subs	r2, r1, r2
    219e:	801a      	strh	r2, [r3, #0]
    21a0:	2316      	movs	r3, #22
    21a2:	18fb      	adds	r3, r7, r3
    21a4:	2200      	movs	r2, #0
    21a6:	801a      	strh	r2, [r3, #0]
    21a8:	e00e      	b.n	21c8 <ReadPacket+0x8c>
    21aa:	2326      	movs	r3, #38	; 0x26
    21ac:	18fb      	adds	r3, r7, r3
    21ae:	2212      	movs	r2, #18
    21b0:	18ba      	adds	r2, r7, r2
    21b2:	8812      	ldrh	r2, [r2, #0]
    21b4:	2180      	movs	r1, #128	; 0x80
    21b6:	0149      	lsls	r1, r1, #5
    21b8:	1a8a      	subs	r2, r1, r2
    21ba:	801a      	strh	r2, [r3, #0]
    21bc:	2316      	movs	r3, #22
    21be:	18fb      	adds	r3, r7, r3
    21c0:	2214      	movs	r2, #20
    21c2:	18ba      	adds	r2, r7, r2
    21c4:	8812      	ldrh	r2, [r2, #0]
    21c6:	801a      	strh	r2, [r3, #0]
    21c8:	2312      	movs	r3, #18
    21ca:	18fb      	adds	r3, r7, r3
    21cc:	881b      	ldrh	r3, [r3, #0]
    21ce:	22e0      	movs	r2, #224	; 0xe0
    21d0:	0592      	lsls	r2, r2, #22
    21d2:	4694      	mov	ip, r2
    21d4:	4463      	add	r3, ip
    21d6:	623b      	str	r3, [r7, #32]
    21d8:	687b      	ldr	r3, [r7, #4]
    21da:	61fb      	str	r3, [r7, #28]
    21dc:	2308      	movs	r3, #8
    21de:	18fa      	adds	r2, r7, r3
    21e0:	6a3b      	ldr	r3, [r7, #32]
    21e2:	1d19      	adds	r1, r3, #4
    21e4:	6239      	str	r1, [r7, #32]
    21e6:	681b      	ldr	r3, [r3, #0]
    21e8:	6013      	str	r3, [r2, #0]
    21ea:	2308      	movs	r3, #8
    21ec:	18fb      	adds	r3, r7, r3
    21ee:	881b      	ldrh	r3, [r3, #0]
    21f0:	3303      	adds	r3, #3
    21f2:	2b00      	cmp	r3, #0
    21f4:	da00      	bge.n	21f8 <ReadPacket+0xbc>
    21f6:	3303      	adds	r3, #3
    21f8:	109b      	asrs	r3, r3, #2
    21fa:	60fb      	str	r3, [r7, #12]
    21fc:	2326      	movs	r3, #38	; 0x26
    21fe:	18fb      	adds	r3, r7, r3
    2200:	2226      	movs	r2, #38	; 0x26
    2202:	18ba      	adds	r2, r7, r2
    2204:	8812      	ldrh	r2, [r2, #0]
    2206:	3a04      	subs	r2, #4
    2208:	801a      	strh	r2, [r3, #0]
    220a:	6a3b      	ldr	r3, [r7, #32]
    220c:	b29b      	uxth	r3, r3
    220e:	4a44      	ldr	r2, [pc, #272]	; (2320 <ReadPacket+0x1e4>)
    2210:	4293      	cmp	r3, r2
    2212:	d902      	bls.n	221a <ReadPacket+0xde>
    2214:	23e0      	movs	r3, #224	; 0xe0
    2216:	059b      	lsls	r3, r3, #22
    2218:	623b      	str	r3, [r7, #32]
    221a:	2308      	movs	r3, #8
    221c:	18fb      	adds	r3, r7, r3
    221e:	881b      	ldrh	r3, [r3, #0]
    2220:	2226      	movs	r2, #38	; 0x26
    2222:	18ba      	adds	r2, r7, r2
    2224:	8812      	ldrh	r2, [r2, #0]
    2226:	429a      	cmp	r2, r3
    2228:	d312      	bcc.n	2250 <ReadPacket+0x114>
    222a:	2300      	movs	r3, #0
    222c:	61bb      	str	r3, [r7, #24]
    222e:	e00a      	b.n	2246 <ReadPacket+0x10a>
    2230:	69fb      	ldr	r3, [r7, #28]
    2232:	1d1a      	adds	r2, r3, #4
    2234:	61fa      	str	r2, [r7, #28]
    2236:	6a3a      	ldr	r2, [r7, #32]
    2238:	1d11      	adds	r1, r2, #4
    223a:	6239      	str	r1, [r7, #32]
    223c:	6812      	ldr	r2, [r2, #0]
    223e:	601a      	str	r2, [r3, #0]
    2240:	69bb      	ldr	r3, [r7, #24]
    2242:	3301      	adds	r3, #1
    2244:	61bb      	str	r3, [r7, #24]
    2246:	69ba      	ldr	r2, [r7, #24]
    2248:	68fb      	ldr	r3, [r7, #12]
    224a:	429a      	cmp	r2, r3
    224c:	d3f0      	bcc.n	2230 <ReadPacket+0xf4>
    224e:	e034      	b.n	22ba <ReadPacket+0x17e>
    2250:	2326      	movs	r3, #38	; 0x26
    2252:	18fb      	adds	r3, r7, r3
    2254:	881b      	ldrh	r3, [r3, #0]
    2256:	089b      	lsrs	r3, r3, #2
    2258:	b29b      	uxth	r3, r3
    225a:	001a      	movs	r2, r3
    225c:	68fb      	ldr	r3, [r7, #12]
    225e:	1a9b      	subs	r3, r3, r2
    2260:	60fb      	str	r3, [r7, #12]
    2262:	2300      	movs	r3, #0
    2264:	61bb      	str	r3, [r7, #24]
    2266:	e00a      	b.n	227e <ReadPacket+0x142>
    2268:	69fb      	ldr	r3, [r7, #28]
    226a:	1d1a      	adds	r2, r3, #4
    226c:	61fa      	str	r2, [r7, #28]
    226e:	6a3a      	ldr	r2, [r7, #32]
    2270:	1d11      	adds	r1, r2, #4
    2272:	6239      	str	r1, [r7, #32]
    2274:	6812      	ldr	r2, [r2, #0]
    2276:	601a      	str	r2, [r3, #0]
    2278:	69bb      	ldr	r3, [r7, #24]
    227a:	3301      	adds	r3, #1
    227c:	61bb      	str	r3, [r7, #24]
    227e:	2326      	movs	r3, #38	; 0x26
    2280:	18fb      	adds	r3, r7, r3
    2282:	881b      	ldrh	r3, [r3, #0]
    2284:	089b      	lsrs	r3, r3, #2
    2286:	b29b      	uxth	r3, r3
    2288:	001a      	movs	r2, r3
    228a:	69bb      	ldr	r3, [r7, #24]
    228c:	429a      	cmp	r2, r3
    228e:	d8eb      	bhi.n	2268 <ReadPacket+0x12c>
    2290:	23e0      	movs	r3, #224	; 0xe0
    2292:	059b      	lsls	r3, r3, #22
    2294:	623b      	str	r3, [r7, #32]
    2296:	2300      	movs	r3, #0
    2298:	61bb      	str	r3, [r7, #24]
    229a:	e00a      	b.n	22b2 <ReadPacket+0x176>
    229c:	69fb      	ldr	r3, [r7, #28]
    229e:	1d1a      	adds	r2, r3, #4
    22a0:	61fa      	str	r2, [r7, #28]
    22a2:	6a3a      	ldr	r2, [r7, #32]
    22a4:	1d11      	adds	r1, r2, #4
    22a6:	6239      	str	r1, [r7, #32]
    22a8:	6812      	ldr	r2, [r2, #0]
    22aa:	601a      	str	r2, [r3, #0]
    22ac:	69bb      	ldr	r3, [r7, #24]
    22ae:	3301      	adds	r3, #1
    22b0:	61bb      	str	r3, [r7, #24]
    22b2:	69ba      	ldr	r2, [r7, #24]
    22b4:	68fb      	ldr	r3, [r7, #12]
    22b6:	429a      	cmp	r2, r3
    22b8:	d3f0      	bcc.n	229c <ReadPacket+0x160>
    22ba:	6a3b      	ldr	r3, [r7, #32]
    22bc:	b29b      	uxth	r3, r3
    22be:	4a18      	ldr	r2, [pc, #96]	; (2320 <ReadPacket+0x1e4>)
    22c0:	4293      	cmp	r3, r2
    22c2:	d902      	bls.n	22ca <ReadPacket+0x18e>
    22c4:	23e0      	movs	r3, #224	; 0xe0
    22c6:	059b      	lsls	r3, r3, #22
    22c8:	623b      	str	r3, [r7, #32]
    22ca:	23c0      	movs	r3, #192	; 0xc0
    22cc:	059b      	lsls	r3, r3, #22
    22ce:	6a3a      	ldr	r2, [r7, #32]
    22d0:	b292      	uxth	r2, r2
    22d2:	851a      	strh	r2, [r3, #40]	; 0x28
    22d4:	23c0      	movs	r3, #192	; 0xc0
    22d6:	059b      	lsls	r3, r3, #22
    22d8:	22c0      	movs	r2, #192	; 0xc0
    22da:	0592      	lsls	r2, r2, #22
    22dc:	8e12      	ldrh	r2, [r2, #48]	; 0x30
    22de:	b292      	uxth	r2, r2
    22e0:	3a20      	subs	r2, #32
    22e2:	b292      	uxth	r2, r2
    22e4:	861a      	strh	r2, [r3, #48]	; 0x30
    22e6:	687b      	ldr	r3, [r7, #4]
    22e8:	88da      	ldrh	r2, [r3, #6]
    22ea:	4b0e      	ldr	r3, [pc, #56]	; (2324 <ReadPacket+0x1e8>)
    22ec:	801a      	strh	r2, [r3, #0]
    22ee:	687b      	ldr	r3, [r7, #4]
    22f0:	891a      	ldrh	r2, [r3, #8]
    22f2:	4b0c      	ldr	r3, [pc, #48]	; (2324 <ReadPacket+0x1e8>)
    22f4:	805a      	strh	r2, [r3, #2]
    22f6:	687b      	ldr	r3, [r7, #4]
    22f8:	895a      	ldrh	r2, [r3, #10]
    22fa:	4b0a      	ldr	r3, [pc, #40]	; (2324 <ReadPacket+0x1e8>)
    22fc:	809a      	strh	r2, [r3, #4]
    22fe:	4b09      	ldr	r3, [pc, #36]	; (2324 <ReadPacket+0x1e8>)
    2300:	2201      	movs	r2, #1
    2302:	815a      	strh	r2, [r3, #10]
    2304:	4b05      	ldr	r3, [pc, #20]	; (231c <ReadPacket+0x1e0>)
    2306:	681b      	ldr	r3, [r3, #0]
    2308:	0018      	movs	r0, r3
    230a:	f004 f89f 	bl	644c <osMutexRelease>
    230e:	2308      	movs	r3, #8
    2310:	18fb      	adds	r3, r7, r3
    2312:	881b      	ldrh	r3, [r3, #0]
    2314:	0018      	movs	r0, r3
    2316:	46bd      	mov	sp, r7
    2318:	b00a      	add	sp, #40	; 0x28
    231a:	bd80      	pop	{r7, pc}
    231c:	2000532c 	.word	0x2000532c
    2320:	00000fff 	.word	0x00000fff
    2324:	20004d1c 	.word	0x20004d1c

00002328 <SendPacket>:
    2328:	b580      	push	{r7, lr}
    232a:	b08a      	sub	sp, #40	; 0x28
    232c:	af00      	add	r7, sp, #0
    232e:	6078      	str	r0, [r7, #4]
    2330:	6039      	str	r1, [r7, #0]
    2332:	4b79      	ldr	r3, [pc, #484]	; (2518 <SendPacket+0x1f0>)
    2334:	681a      	ldr	r2, [r3, #0]
    2336:	2301      	movs	r3, #1
    2338:	425b      	negs	r3, r3
    233a:	0019      	movs	r1, r3
    233c:	0010      	movs	r0, r2
    233e:	f004 f875 	bl	642c <osMutexWait>
    2342:	23c0      	movs	r3, #192	; 0xc0
    2344:	059b      	lsls	r3, r3, #22
    2346:	8ddb      	ldrh	r3, [r3, #46]	; 0x2e
    2348:	b29b      	uxth	r3, r3
    234a:	61bb      	str	r3, [r7, #24]
    234c:	23c0      	movs	r3, #192	; 0xc0
    234e:	059b      	lsls	r3, r3, #22
    2350:	8d5b      	ldrh	r3, [r3, #42]	; 0x2a
    2352:	b29b      	uxth	r3, r3
    2354:	617b      	str	r3, [r7, #20]
    2356:	69ba      	ldr	r2, [r7, #24]
    2358:	697b      	ldr	r3, [r7, #20]
    235a:	429a      	cmp	r2, r3
    235c:	d90d      	bls.n	237a <SendPacket+0x52>
    235e:	69bb      	ldr	r3, [r7, #24]
    2360:	b29a      	uxth	r2, r3
    2362:	697b      	ldr	r3, [r7, #20]
    2364:	b29b      	uxth	r3, r3
    2366:	1ad3      	subs	r3, r2, r3
    2368:	b29a      	uxth	r2, r3
    236a:	230c      	movs	r3, #12
    236c:	18fb      	adds	r3, r7, r3
    236e:	801a      	strh	r2, [r3, #0]
    2370:	230c      	movs	r3, #12
    2372:	18fb      	adds	r3, r7, r3
    2374:	2200      	movs	r2, #0
    2376:	805a      	strh	r2, [r3, #2]
    2378:	e011      	b.n	239e <SendPacket+0x76>
    237a:	697b      	ldr	r3, [r7, #20]
    237c:	b29b      	uxth	r3, r3
    237e:	2280      	movs	r2, #128	; 0x80
    2380:	0192      	lsls	r2, r2, #6
    2382:	1ad3      	subs	r3, r2, r3
    2384:	b29a      	uxth	r2, r3
    2386:	230c      	movs	r3, #12
    2388:	18fb      	adds	r3, r7, r3
    238a:	801a      	strh	r2, [r3, #0]
    238c:	69bb      	ldr	r3, [r7, #24]
    238e:	b29b      	uxth	r3, r3
    2390:	4a62      	ldr	r2, [pc, #392]	; (251c <SendPacket+0x1f4>)
    2392:	4694      	mov	ip, r2
    2394:	4463      	add	r3, ip
    2396:	b29a      	uxth	r2, r3
    2398:	230c      	movs	r3, #12
    239a:	18fb      	adds	r3, r7, r3
    239c:	805a      	strh	r2, [r3, #2]
    239e:	230c      	movs	r3, #12
    23a0:	18fb      	adds	r3, r7, r3
    23a2:	881b      	ldrh	r3, [r3, #0]
    23a4:	001a      	movs	r2, r3
    23a6:	230c      	movs	r3, #12
    23a8:	18fb      	adds	r3, r7, r3
    23aa:	885b      	ldrh	r3, [r3, #2]
    23ac:	18d3      	adds	r3, r2, r3
    23ae:	3b08      	subs	r3, #8
    23b0:	001a      	movs	r2, r3
    23b2:	683b      	ldr	r3, [r7, #0]
    23b4:	429a      	cmp	r2, r3
    23b6:	da01      	bge.n	23bc <SendPacket+0x94>
    23b8:	2300      	movs	r3, #0
    23ba:	e0a9      	b.n	2510 <SendPacket+0x1e8>
    23bc:	683b      	ldr	r3, [r7, #0]
    23be:	613b      	str	r3, [r7, #16]
    23c0:	687b      	ldr	r3, [r7, #4]
    23c2:	623b      	str	r3, [r7, #32]
    23c4:	697b      	ldr	r3, [r7, #20]
    23c6:	22e0      	movs	r2, #224	; 0xe0
    23c8:	0592      	lsls	r2, r2, #22
    23ca:	4694      	mov	ip, r2
    23cc:	4463      	add	r3, ip
    23ce:	61fb      	str	r3, [r7, #28]
    23d0:	69fb      	ldr	r3, [r7, #28]
    23d2:	1d1a      	adds	r2, r3, #4
    23d4:	61fa      	str	r2, [r7, #28]
    23d6:	693a      	ldr	r2, [r7, #16]
    23d8:	601a      	str	r2, [r3, #0]
    23da:	230c      	movs	r3, #12
    23dc:	18fb      	adds	r3, r7, r3
    23de:	881b      	ldrh	r3, [r3, #0]
    23e0:	3b04      	subs	r3, #4
    23e2:	b29a      	uxth	r2, r3
    23e4:	230c      	movs	r3, #12
    23e6:	18fb      	adds	r3, r7, r3
    23e8:	801a      	strh	r2, [r3, #0]
    23ea:	69fb      	ldr	r3, [r7, #28]
    23ec:	b29b      	uxth	r3, r3
    23ee:	4a4c      	ldr	r2, [pc, #304]	; (2520 <SendPacket+0x1f8>)
    23f0:	4293      	cmp	r3, r2
    23f2:	d901      	bls.n	23f8 <SendPacket+0xd0>
    23f4:	4b4b      	ldr	r3, [pc, #300]	; (2524 <SendPacket+0x1fc>)
    23f6:	61fb      	str	r3, [r7, #28]
    23f8:	683b      	ldr	r3, [r7, #0]
    23fa:	3303      	adds	r3, #3
    23fc:	2b00      	cmp	r3, #0
    23fe:	da00      	bge.n	2402 <SendPacket+0xda>
    2400:	3303      	adds	r3, #3
    2402:	109b      	asrs	r3, r3, #2
    2404:	613b      	str	r3, [r7, #16]
    2406:	230c      	movs	r3, #12
    2408:	18fb      	adds	r3, r7, r3
    240a:	881b      	ldrh	r3, [r3, #0]
    240c:	001a      	movs	r2, r3
    240e:	683b      	ldr	r3, [r7, #0]
    2410:	429a      	cmp	r2, r3
    2412:	db1a      	blt.n	244a <SendPacket+0x122>
    2414:	2326      	movs	r3, #38	; 0x26
    2416:	18fb      	adds	r3, r7, r3
    2418:	2200      	movs	r2, #0
    241a:	801a      	strh	r2, [r3, #0]
    241c:	e00e      	b.n	243c <SendPacket+0x114>
    241e:	69fb      	ldr	r3, [r7, #28]
    2420:	1d1a      	adds	r2, r3, #4
    2422:	61fa      	str	r2, [r7, #28]
    2424:	6a3a      	ldr	r2, [r7, #32]
    2426:	1d11      	adds	r1, r2, #4
    2428:	6239      	str	r1, [r7, #32]
    242a:	6812      	ldr	r2, [r2, #0]
    242c:	601a      	str	r2, [r3, #0]
    242e:	2326      	movs	r3, #38	; 0x26
    2430:	18fb      	adds	r3, r7, r3
    2432:	881a      	ldrh	r2, [r3, #0]
    2434:	2326      	movs	r3, #38	; 0x26
    2436:	18fb      	adds	r3, r7, r3
    2438:	3201      	adds	r2, #1
    243a:	801a      	strh	r2, [r3, #0]
    243c:	2326      	movs	r3, #38	; 0x26
    243e:	18fb      	adds	r3, r7, r3
    2440:	881a      	ldrh	r2, [r3, #0]
    2442:	693b      	ldr	r3, [r7, #16]
    2444:	429a      	cmp	r2, r3
    2446:	d3ea      	bcc.n	241e <SendPacket+0xf6>
    2448:	e042      	b.n	24d0 <SendPacket+0x1a8>
    244a:	230c      	movs	r3, #12
    244c:	18fb      	adds	r3, r7, r3
    244e:	881b      	ldrh	r3, [r3, #0]
    2450:	089b      	lsrs	r3, r3, #2
    2452:	b29b      	uxth	r3, r3
    2454:	001a      	movs	r2, r3
    2456:	693b      	ldr	r3, [r7, #16]
    2458:	1a9b      	subs	r3, r3, r2
    245a:	613b      	str	r3, [r7, #16]
    245c:	2326      	movs	r3, #38	; 0x26
    245e:	18fb      	adds	r3, r7, r3
    2460:	2200      	movs	r2, #0
    2462:	801a      	strh	r2, [r3, #0]
    2464:	e00e      	b.n	2484 <SendPacket+0x15c>
    2466:	69fb      	ldr	r3, [r7, #28]
    2468:	1d1a      	adds	r2, r3, #4
    246a:	61fa      	str	r2, [r7, #28]
    246c:	6a3a      	ldr	r2, [r7, #32]
    246e:	1d11      	adds	r1, r2, #4
    2470:	6239      	str	r1, [r7, #32]
    2472:	6812      	ldr	r2, [r2, #0]
    2474:	601a      	str	r2, [r3, #0]
    2476:	2326      	movs	r3, #38	; 0x26
    2478:	18fb      	adds	r3, r7, r3
    247a:	881a      	ldrh	r2, [r3, #0]
    247c:	2326      	movs	r3, #38	; 0x26
    247e:	18fb      	adds	r3, r7, r3
    2480:	3201      	adds	r2, #1
    2482:	801a      	strh	r2, [r3, #0]
    2484:	230c      	movs	r3, #12
    2486:	18fb      	adds	r3, r7, r3
    2488:	881b      	ldrh	r3, [r3, #0]
    248a:	089b      	lsrs	r3, r3, #2
    248c:	b29b      	uxth	r3, r3
    248e:	2226      	movs	r2, #38	; 0x26
    2490:	18ba      	adds	r2, r7, r2
    2492:	8812      	ldrh	r2, [r2, #0]
    2494:	429a      	cmp	r2, r3
    2496:	d3e6      	bcc.n	2466 <SendPacket+0x13e>
    2498:	4b22      	ldr	r3, [pc, #136]	; (2524 <SendPacket+0x1fc>)
    249a:	61fb      	str	r3, [r7, #28]
    249c:	2326      	movs	r3, #38	; 0x26
    249e:	18fb      	adds	r3, r7, r3
    24a0:	2200      	movs	r2, #0
    24a2:	801a      	strh	r2, [r3, #0]
    24a4:	e00e      	b.n	24c4 <SendPacket+0x19c>
    24a6:	69fb      	ldr	r3, [r7, #28]
    24a8:	1d1a      	adds	r2, r3, #4
    24aa:	61fa      	str	r2, [r7, #28]
    24ac:	6a3a      	ldr	r2, [r7, #32]
    24ae:	1d11      	adds	r1, r2, #4
    24b0:	6239      	str	r1, [r7, #32]
    24b2:	6812      	ldr	r2, [r2, #0]
    24b4:	601a      	str	r2, [r3, #0]
    24b6:	2326      	movs	r3, #38	; 0x26
    24b8:	18fb      	adds	r3, r7, r3
    24ba:	881a      	ldrh	r2, [r3, #0]
    24bc:	2326      	movs	r3, #38	; 0x26
    24be:	18fb      	adds	r3, r7, r3
    24c0:	3201      	adds	r2, #1
    24c2:	801a      	strh	r2, [r3, #0]
    24c4:	2326      	movs	r3, #38	; 0x26
    24c6:	18fb      	adds	r3, r7, r3
    24c8:	881a      	ldrh	r2, [r3, #0]
    24ca:	693b      	ldr	r3, [r7, #16]
    24cc:	429a      	cmp	r2, r3
    24ce:	d3ea      	bcc.n	24a6 <SendPacket+0x17e>
    24d0:	69fb      	ldr	r3, [r7, #28]
    24d2:	b29b      	uxth	r3, r3
    24d4:	4a12      	ldr	r2, [pc, #72]	; (2520 <SendPacket+0x1f8>)
    24d6:	4293      	cmp	r3, r2
    24d8:	d901      	bls.n	24de <SendPacket+0x1b6>
    24da:	4b12      	ldr	r3, [pc, #72]	; (2524 <SendPacket+0x1fc>)
    24dc:	61fb      	str	r3, [r7, #28]
    24de:	2300      	movs	r3, #0
    24e0:	613b      	str	r3, [r7, #16]
    24e2:	69fb      	ldr	r3, [r7, #28]
    24e4:	1d1a      	adds	r2, r3, #4
    24e6:	61fa      	str	r2, [r7, #28]
    24e8:	693a      	ldr	r2, [r7, #16]
    24ea:	601a      	str	r2, [r3, #0]
    24ec:	69fb      	ldr	r3, [r7, #28]
    24ee:	b29b      	uxth	r3, r3
    24f0:	4a0b      	ldr	r2, [pc, #44]	; (2520 <SendPacket+0x1f8>)
    24f2:	4293      	cmp	r3, r2
    24f4:	d901      	bls.n	24fa <SendPacket+0x1d2>
    24f6:	4b0b      	ldr	r3, [pc, #44]	; (2524 <SendPacket+0x1fc>)
    24f8:	61fb      	str	r3, [r7, #28]
    24fa:	23c0      	movs	r3, #192	; 0xc0
    24fc:	059b      	lsls	r3, r3, #22
    24fe:	69fa      	ldr	r2, [r7, #28]
    2500:	b292      	uxth	r2, r2
    2502:	855a      	strh	r2, [r3, #42]	; 0x2a
    2504:	4b04      	ldr	r3, [pc, #16]	; (2518 <SendPacket+0x1f0>)
    2506:	681b      	ldr	r3, [r3, #0]
    2508:	0018      	movs	r0, r3
    250a:	f003 ff9f 	bl	644c <osMutexRelease>
    250e:	683b      	ldr	r3, [r7, #0]
    2510:	0018      	movs	r0, r3
    2512:	46bd      	mov	sp, r7
    2514:	b00a      	add	sp, #40	; 0x28
    2516:	bd80      	pop	{r7, pc}
    2518:	20005340 	.word	0x20005340
    251c:	fffff000 	.word	0xfffff000
    2520:	00001ffc 	.word	0x00001ffc
    2524:	38001000 	.word	0x38001000

00002528 <ETHERNET_Handler>:
    2528:	b580      	push	{r7, lr}
    252a:	b082      	sub	sp, #8
    252c:	af00      	add	r7, sp, #0
    252e:	23c0      	movs	r3, #192	; 0xc0
    2530:	059a      	lsls	r2, r3, #22
    2532:	1dbb      	adds	r3, r7, #6
    2534:	8c52      	ldrh	r2, [r2, #34]	; 0x22
    2536:	801a      	strh	r2, [r3, #0]
    2538:	23c0      	movs	r3, #192	; 0xc0
    253a:	059b      	lsls	r3, r3, #22
    253c:	1dba      	adds	r2, r7, #6
    253e:	8812      	ldrh	r2, [r2, #0]
    2540:	845a      	strh	r2, [r3, #34]	; 0x22
    2542:	1dbb      	adds	r3, r7, #6
    2544:	881b      	ldrh	r3, [r3, #0]
    2546:	2201      	movs	r2, #1
    2548:	4013      	ands	r3, r2
    254a:	d008      	beq.n	255e <ETHERNET_Handler+0x36>
    254c:	4b0a      	ldr	r3, [pc, #40]	; (2578 <ETHERNET_Handler+0x50>)
    254e:	2201      	movs	r2, #1
    2550:	601a      	str	r2, [r3, #0]
    2552:	4b0a      	ldr	r3, [pc, #40]	; (257c <ETHERNET_Handler+0x54>)
    2554:	681b      	ldr	r3, [r3, #0]
    2556:	2101      	movs	r1, #1
    2558:	0018      	movs	r0, r3
    255a:	f003 fe85 	bl	6268 <osSignalSet>
    255e:	1dbb      	adds	r3, r7, #6
    2560:	881b      	ldrh	r3, [r3, #0]
    2562:	2202      	movs	r2, #2
    2564:	4013      	ands	r3, r2
    2566:	d002      	beq.n	256e <ETHERNET_Handler+0x46>
    2568:	4b05      	ldr	r3, [pc, #20]	; (2580 <ETHERNET_Handler+0x58>)
    256a:	2201      	movs	r2, #1
    256c:	601a      	str	r2, [r3, #0]
    256e:	46c0      	nop			; (mov r8, r8)
    2570:	46bd      	mov	sp, r7
    2572:	b002      	add	sp, #8
    2574:	bd80      	pop	{r7, pc}
    2576:	46c0      	nop			; (mov r8, r8)
    2578:	20004d28 	.word	0x20004d28
    257c:	20000858 	.word	0x20000858
    2580:	20004d2c 	.word	0x20004d2c

00002584 <network_config>:
    2584:	b580      	push	{r7, lr}
    2586:	af00      	add	r7, sp, #0
    2588:	46c0      	nop			; (mov r8, r8)
    258a:	46bd      	mov	sp, r7
    258c:	bd80      	pop	{r7, pc}
    258e:	46c0      	nop			; (mov r8, r8)

00002590 <Answear_ARP>:
    2590:	b580      	push	{r7, lr}
    2592:	b08c      	sub	sp, #48	; 0x30
    2594:	af00      	add	r7, sp, #0
    2596:	4b36      	ldr	r3, [pc, #216]	; (2670 <Answear_ARP+0xe0>)
    2598:	88da      	ldrh	r2, [r3, #6]
    259a:	1d3b      	adds	r3, r7, #4
    259c:	801a      	strh	r2, [r3, #0]
    259e:	4b34      	ldr	r3, [pc, #208]	; (2670 <Answear_ARP+0xe0>)
    25a0:	891a      	ldrh	r2, [r3, #8]
    25a2:	1d3b      	adds	r3, r7, #4
    25a4:	805a      	strh	r2, [r3, #2]
    25a6:	4b32      	ldr	r3, [pc, #200]	; (2670 <Answear_ARP+0xe0>)
    25a8:	895a      	ldrh	r2, [r3, #10]
    25aa:	1d3b      	adds	r3, r7, #4
    25ac:	809a      	strh	r2, [r3, #4]
    25ae:	23c0      	movs	r3, #192	; 0xc0
    25b0:	059b      	lsls	r3, r3, #22
    25b2:	885b      	ldrh	r3, [r3, #2]
    25b4:	b29a      	uxth	r2, r3
    25b6:	1d3b      	adds	r3, r7, #4
    25b8:	80da      	strh	r2, [r3, #6]
    25ba:	23c0      	movs	r3, #192	; 0xc0
    25bc:	059b      	lsls	r3, r3, #22
    25be:	889b      	ldrh	r3, [r3, #4]
    25c0:	b29a      	uxth	r2, r3
    25c2:	1d3b      	adds	r3, r7, #4
    25c4:	811a      	strh	r2, [r3, #8]
    25c6:	23c0      	movs	r3, #192	; 0xc0
    25c8:	059b      	lsls	r3, r3, #22
    25ca:	88db      	ldrh	r3, [r3, #6]
    25cc:	b29a      	uxth	r2, r3
    25ce:	1d3b      	adds	r3, r7, #4
    25d0:	815a      	strh	r2, [r3, #10]
    25d2:	4b27      	ldr	r3, [pc, #156]	; (2670 <Answear_ARP+0xe0>)
    25d4:	899a      	ldrh	r2, [r3, #12]
    25d6:	1d3b      	adds	r3, r7, #4
    25d8:	819a      	strh	r2, [r3, #12]
    25da:	4b25      	ldr	r3, [pc, #148]	; (2670 <Answear_ARP+0xe0>)
    25dc:	89da      	ldrh	r2, [r3, #14]
    25de:	1d3b      	adds	r3, r7, #4
    25e0:	81da      	strh	r2, [r3, #14]
    25e2:	4b23      	ldr	r3, [pc, #140]	; (2670 <Answear_ARP+0xe0>)
    25e4:	8a1a      	ldrh	r2, [r3, #16]
    25e6:	1d3b      	adds	r3, r7, #4
    25e8:	821a      	strh	r2, [r3, #16]
    25ea:	4b21      	ldr	r3, [pc, #132]	; (2670 <Answear_ARP+0xe0>)
    25ec:	8a5a      	ldrh	r2, [r3, #18]
    25ee:	1d3b      	adds	r3, r7, #4
    25f0:	825a      	strh	r2, [r3, #18]
    25f2:	1d3b      	adds	r3, r7, #4
    25f4:	2280      	movs	r2, #128	; 0x80
    25f6:	0092      	lsls	r2, r2, #2
    25f8:	829a      	strh	r2, [r3, #20]
    25fa:	23c0      	movs	r3, #192	; 0xc0
    25fc:	059b      	lsls	r3, r3, #22
    25fe:	885b      	ldrh	r3, [r3, #2]
    2600:	b29a      	uxth	r2, r3
    2602:	1d3b      	adds	r3, r7, #4
    2604:	82da      	strh	r2, [r3, #22]
    2606:	23c0      	movs	r3, #192	; 0xc0
    2608:	059b      	lsls	r3, r3, #22
    260a:	889b      	ldrh	r3, [r3, #4]
    260c:	b29a      	uxth	r2, r3
    260e:	1d3b      	adds	r3, r7, #4
    2610:	831a      	strh	r2, [r3, #24]
    2612:	23c0      	movs	r3, #192	; 0xc0
    2614:	059b      	lsls	r3, r3, #22
    2616:	88db      	ldrh	r3, [r3, #6]
    2618:	b29a      	uxth	r2, r3
    261a:	1d3b      	adds	r3, r7, #4
    261c:	835a      	strh	r2, [r3, #26]
    261e:	4b15      	ldr	r3, [pc, #84]	; (2674 <Answear_ARP+0xe4>)
    2620:	881a      	ldrh	r2, [r3, #0]
    2622:	1d3b      	adds	r3, r7, #4
    2624:	839a      	strh	r2, [r3, #28]
    2626:	4b13      	ldr	r3, [pc, #76]	; (2674 <Answear_ARP+0xe4>)
    2628:	885a      	ldrh	r2, [r3, #2]
    262a:	1d3b      	adds	r3, r7, #4
    262c:	83da      	strh	r2, [r3, #30]
    262e:	4b10      	ldr	r3, [pc, #64]	; (2670 <Answear_ARP+0xe0>)
    2630:	88da      	ldrh	r2, [r3, #6]
    2632:	1d3b      	adds	r3, r7, #4
    2634:	841a      	strh	r2, [r3, #32]
    2636:	4b0e      	ldr	r3, [pc, #56]	; (2670 <Answear_ARP+0xe0>)
    2638:	891a      	ldrh	r2, [r3, #8]
    263a:	1d3b      	adds	r3, r7, #4
    263c:	845a      	strh	r2, [r3, #34]	; 0x22
    263e:	4b0c      	ldr	r3, [pc, #48]	; (2670 <Answear_ARP+0xe0>)
    2640:	895a      	ldrh	r2, [r3, #10]
    2642:	1d3b      	adds	r3, r7, #4
    2644:	849a      	strh	r2, [r3, #36]	; 0x24
    2646:	4b0a      	ldr	r3, [pc, #40]	; (2670 <Answear_ARP+0xe0>)
    2648:	8b9a      	ldrh	r2, [r3, #28]
    264a:	1d3b      	adds	r3, r7, #4
    264c:	84da      	strh	r2, [r3, #38]	; 0x26
    264e:	4b08      	ldr	r3, [pc, #32]	; (2670 <Answear_ARP+0xe0>)
    2650:	8bda      	ldrh	r2, [r3, #30]
    2652:	1d3b      	adds	r3, r7, #4
    2654:	851a      	strh	r2, [r3, #40]	; 0x28
    2656:	1d3b      	adds	r3, r7, #4
    2658:	2200      	movs	r2, #0
    265a:	855a      	strh	r2, [r3, #42]	; 0x2a
    265c:	1d3b      	adds	r3, r7, #4
    265e:	212a      	movs	r1, #42	; 0x2a
    2660:	0018      	movs	r0, r3
    2662:	f7ff fe61 	bl	2328 <SendPacket>
    2666:	46c0      	nop			; (mov r8, r8)
    2668:	46bd      	mov	sp, r7
    266a:	b00c      	add	sp, #48	; 0x30
    266c:	bd80      	pop	{r7, pc}
    266e:	46c0      	nop			; (mov r8, r8)
    2670:	20004d38 	.word	0x20004d38
    2674:	2000000c 	.word	0x2000000c

00002678 <CheckSum_UDP>:
    2678:	b580      	push	{r7, lr}
    267a:	b086      	sub	sp, #24
    267c:	af00      	add	r7, sp, #0
    267e:	0002      	movs	r2, r0
    2680:	6039      	str	r1, [r7, #0]
    2682:	1dbb      	adds	r3, r7, #6
    2684:	801a      	strh	r2, [r3, #0]
    2686:	2300      	movs	r3, #0
    2688:	613b      	str	r3, [r7, #16]
    268a:	230d      	movs	r3, #13
    268c:	617b      	str	r3, [r7, #20]
    268e:	e019      	b.n	26c4 <CheckSum_UDP+0x4c>
    2690:	697b      	ldr	r3, [r7, #20]
    2692:	005b      	lsls	r3, r3, #1
    2694:	683a      	ldr	r2, [r7, #0]
    2696:	18d3      	adds	r3, r2, r3
    2698:	881b      	ldrh	r3, [r3, #0]
    269a:	021b      	lsls	r3, r3, #8
    269c:	041b      	lsls	r3, r3, #16
    269e:	0c1a      	lsrs	r2, r3, #16
    26a0:	697b      	ldr	r3, [r7, #20]
    26a2:	005b      	lsls	r3, r3, #1
    26a4:	6839      	ldr	r1, [r7, #0]
    26a6:	18cb      	adds	r3, r1, r3
    26a8:	881b      	ldrh	r3, [r3, #0]
    26aa:	0a1b      	lsrs	r3, r3, #8
    26ac:	b29b      	uxth	r3, r3
    26ae:	0019      	movs	r1, r3
    26b0:	23ff      	movs	r3, #255	; 0xff
    26b2:	400b      	ands	r3, r1
    26b4:	18d3      	adds	r3, r2, r3
    26b6:	001a      	movs	r2, r3
    26b8:	693b      	ldr	r3, [r7, #16]
    26ba:	189b      	adds	r3, r3, r2
    26bc:	613b      	str	r3, [r7, #16]
    26be:	697b      	ldr	r3, [r7, #20]
    26c0:	3301      	adds	r3, #1
    26c2:	617b      	str	r3, [r7, #20]
    26c4:	697b      	ldr	r3, [r7, #20]
    26c6:	2b10      	cmp	r3, #16
    26c8:	d9e2      	bls.n	2690 <CheckSum_UDP+0x18>
    26ca:	683b      	ldr	r3, [r7, #0]
    26cc:	3316      	adds	r3, #22
    26ce:	881b      	ldrh	r3, [r3, #0]
    26d0:	0a1b      	lsrs	r3, r3, #8
    26d2:	b29b      	uxth	r3, r3
    26d4:	001a      	movs	r2, r3
    26d6:	23ff      	movs	r3, #255	; 0xff
    26d8:	4013      	ands	r3, r2
    26da:	693a      	ldr	r2, [r7, #16]
    26dc:	18d3      	adds	r3, r2, r3
    26de:	613b      	str	r3, [r7, #16]
    26e0:	1dbb      	adds	r3, r7, #6
    26e2:	881b      	ldrh	r3, [r3, #0]
    26e4:	693a      	ldr	r2, [r7, #16]
    26e6:	18d3      	adds	r3, r2, r3
    26e8:	613b      	str	r3, [r7, #16]
    26ea:	683b      	ldr	r3, [r7, #0]
    26ec:	3322      	adds	r3, #34	; 0x22
    26ee:	881b      	ldrh	r3, [r3, #0]
    26f0:	021b      	lsls	r3, r3, #8
    26f2:	041b      	lsls	r3, r3, #16
    26f4:	0c1a      	lsrs	r2, r3, #16
    26f6:	683b      	ldr	r3, [r7, #0]
    26f8:	3322      	adds	r3, #34	; 0x22
    26fa:	881b      	ldrh	r3, [r3, #0]
    26fc:	0a1b      	lsrs	r3, r3, #8
    26fe:	b29b      	uxth	r3, r3
    2700:	0019      	movs	r1, r3
    2702:	23ff      	movs	r3, #255	; 0xff
    2704:	400b      	ands	r3, r1
    2706:	18d3      	adds	r3, r2, r3
    2708:	001a      	movs	r2, r3
    270a:	693b      	ldr	r3, [r7, #16]
    270c:	189b      	adds	r3, r3, r2
    270e:	613b      	str	r3, [r7, #16]
    2710:	683b      	ldr	r3, [r7, #0]
    2712:	3324      	adds	r3, #36	; 0x24
    2714:	881b      	ldrh	r3, [r3, #0]
    2716:	021b      	lsls	r3, r3, #8
    2718:	041b      	lsls	r3, r3, #16
    271a:	0c1a      	lsrs	r2, r3, #16
    271c:	683b      	ldr	r3, [r7, #0]
    271e:	3324      	adds	r3, #36	; 0x24
    2720:	881b      	ldrh	r3, [r3, #0]
    2722:	0a1b      	lsrs	r3, r3, #8
    2724:	b29b      	uxth	r3, r3
    2726:	0019      	movs	r1, r3
    2728:	23ff      	movs	r3, #255	; 0xff
    272a:	400b      	ands	r3, r1
    272c:	18d3      	adds	r3, r2, r3
    272e:	001a      	movs	r2, r3
    2730:	693b      	ldr	r3, [r7, #16]
    2732:	189b      	adds	r3, r3, r2
    2734:	613b      	str	r3, [r7, #16]
    2736:	1dbb      	adds	r3, r7, #6
    2738:	881b      	ldrh	r3, [r3, #0]
    273a:	693a      	ldr	r2, [r7, #16]
    273c:	18d3      	adds	r3, r2, r3
    273e:	613b      	str	r3, [r7, #16]
    2740:	683b      	ldr	r3, [r7, #0]
    2742:	3328      	adds	r3, #40	; 0x28
    2744:	881b      	ldrh	r3, [r3, #0]
    2746:	021b      	lsls	r3, r3, #8
    2748:	041b      	lsls	r3, r3, #16
    274a:	0c1a      	lsrs	r2, r3, #16
    274c:	683b      	ldr	r3, [r7, #0]
    274e:	3328      	adds	r3, #40	; 0x28
    2750:	881b      	ldrh	r3, [r3, #0]
    2752:	0a1b      	lsrs	r3, r3, #8
    2754:	b29b      	uxth	r3, r3
    2756:	0019      	movs	r1, r3
    2758:	23ff      	movs	r3, #255	; 0xff
    275a:	400b      	ands	r3, r1
    275c:	18d3      	adds	r3, r2, r3
    275e:	001a      	movs	r2, r3
    2760:	693b      	ldr	r3, [r7, #16]
    2762:	189b      	adds	r3, r3, r2
    2764:	613b      	str	r3, [r7, #16]
    2766:	683b      	ldr	r3, [r7, #0]
    2768:	332a      	adds	r3, #42	; 0x2a
    276a:	60fb      	str	r3, [r7, #12]
    276c:	2300      	movs	r3, #0
    276e:	617b      	str	r3, [r7, #20]
    2770:	e017      	b.n	27a2 <CheckSum_UDP+0x12a>
    2772:	697b      	ldr	r3, [r7, #20]
    2774:	2201      	movs	r2, #1
    2776:	4013      	ands	r3, r2
    2778:	d008      	beq.n	278c <CheckSum_UDP+0x114>
    277a:	68fb      	ldr	r3, [r7, #12]
    277c:	1c5a      	adds	r2, r3, #1
    277e:	60fa      	str	r2, [r7, #12]
    2780:	781b      	ldrb	r3, [r3, #0]
    2782:	001a      	movs	r2, r3
    2784:	693b      	ldr	r3, [r7, #16]
    2786:	189b      	adds	r3, r3, r2
    2788:	613b      	str	r3, [r7, #16]
    278a:	e007      	b.n	279c <CheckSum_UDP+0x124>
    278c:	68fb      	ldr	r3, [r7, #12]
    278e:	1c5a      	adds	r2, r3, #1
    2790:	60fa      	str	r2, [r7, #12]
    2792:	781b      	ldrb	r3, [r3, #0]
    2794:	021b      	lsls	r3, r3, #8
    2796:	693a      	ldr	r2, [r7, #16]
    2798:	18d3      	adds	r3, r2, r3
    279a:	613b      	str	r3, [r7, #16]
    279c:	697b      	ldr	r3, [r7, #20]
    279e:	3301      	adds	r3, #1
    27a0:	617b      	str	r3, [r7, #20]
    27a2:	1dbb      	adds	r3, r7, #6
    27a4:	881b      	ldrh	r3, [r3, #0]
    27a6:	3b08      	subs	r3, #8
    27a8:	001a      	movs	r2, r3
    27aa:	697b      	ldr	r3, [r7, #20]
    27ac:	429a      	cmp	r2, r3
    27ae:	d8e0      	bhi.n	2772 <CheckSum_UDP+0xfa>
    27b0:	e006      	b.n	27c0 <CheckSum_UDP+0x148>
    27b2:	693b      	ldr	r3, [r7, #16]
    27b4:	0c1a      	lsrs	r2, r3, #16
    27b6:	693b      	ldr	r3, [r7, #16]
    27b8:	041b      	lsls	r3, r3, #16
    27ba:	0c1b      	lsrs	r3, r3, #16
    27bc:	18d3      	adds	r3, r2, r3
    27be:	613b      	str	r3, [r7, #16]
    27c0:	693b      	ldr	r3, [r7, #16]
    27c2:	0c1b      	lsrs	r3, r3, #16
    27c4:	d1f5      	bne.n	27b2 <CheckSum_UDP+0x13a>
    27c6:	693b      	ldr	r3, [r7, #16]
    27c8:	b29b      	uxth	r3, r3
    27ca:	43db      	mvns	r3, r3
    27cc:	b29b      	uxth	r3, r3
    27ce:	0018      	movs	r0, r3
    27d0:	46bd      	mov	sp, r7
    27d2:	b006      	add	sp, #24
    27d4:	bd80      	pop	{r7, pc}
    27d6:	46c0      	nop			; (mov r8, r8)

000027d8 <CheckSum_IP>:
    27d8:	b580      	push	{r7, lr}
    27da:	b084      	sub	sp, #16
    27dc:	af00      	add	r7, sp, #0
    27de:	6078      	str	r0, [r7, #4]
    27e0:	2300      	movs	r3, #0
    27e2:	60bb      	str	r3, [r7, #8]
    27e4:	2300      	movs	r3, #0
    27e6:	60fb      	str	r3, [r7, #12]
    27e8:	e011      	b.n	280e <CheckSum_IP+0x36>
    27ea:	68fb      	ldr	r3, [r7, #12]
    27ec:	2b05      	cmp	r3, #5
    27ee:	d00a      	beq.n	2806 <CheckSum_IP+0x2e>
    27f0:	68fb      	ldr	r3, [r7, #12]
    27f2:	3307      	adds	r3, #7
    27f4:	005b      	lsls	r3, r3, #1
    27f6:	687a      	ldr	r2, [r7, #4]
    27f8:	18d3      	adds	r3, r2, r3
    27fa:	881b      	ldrh	r3, [r3, #0]
    27fc:	001a      	movs	r2, r3
    27fe:	68bb      	ldr	r3, [r7, #8]
    2800:	189b      	adds	r3, r3, r2
    2802:	60bb      	str	r3, [r7, #8]
    2804:	e000      	b.n	2808 <CheckSum_IP+0x30>
    2806:	46c0      	nop			; (mov r8, r8)
    2808:	68fb      	ldr	r3, [r7, #12]
    280a:	3301      	adds	r3, #1
    280c:	60fb      	str	r3, [r7, #12]
    280e:	68fb      	ldr	r3, [r7, #12]
    2810:	2b09      	cmp	r3, #9
    2812:	d9ea      	bls.n	27ea <CheckSum_IP+0x12>
    2814:	68bb      	ldr	r3, [r7, #8]
    2816:	0c1a      	lsrs	r2, r3, #16
    2818:	68bb      	ldr	r3, [r7, #8]
    281a:	041b      	lsls	r3, r3, #16
    281c:	0c1b      	lsrs	r3, r3, #16
    281e:	18d3      	adds	r3, r2, r3
    2820:	60bb      	str	r3, [r7, #8]
    2822:	68bb      	ldr	r3, [r7, #8]
    2824:	b29b      	uxth	r3, r3
    2826:	43db      	mvns	r3, r3
    2828:	b29b      	uxth	r3, r3
    282a:	0018      	movs	r0, r3
    282c:	46bd      	mov	sp, r7
    282e:	b004      	add	sp, #16
    2830:	bd80      	pop	{r7, pc}
    2832:	46c0      	nop			; (mov r8, r8)

00002834 <CheckSum_ICMP>:
    2834:	b580      	push	{r7, lr}
    2836:	b084      	sub	sp, #16
    2838:	af00      	add	r7, sp, #0
    283a:	0002      	movs	r2, r0
    283c:	6039      	str	r1, [r7, #0]
    283e:	1dbb      	adds	r3, r7, #6
    2840:	801a      	strh	r2, [r3, #0]
    2842:	2300      	movs	r3, #0
    2844:	60bb      	str	r3, [r7, #8]
    2846:	2300      	movs	r3, #0
    2848:	60fb      	str	r3, [r7, #12]
    284a:	e011      	b.n	2870 <CheckSum_ICMP+0x3c>
    284c:	68fb      	ldr	r3, [r7, #12]
    284e:	2b01      	cmp	r3, #1
    2850:	d00a      	beq.n	2868 <CheckSum_ICMP+0x34>
    2852:	68fb      	ldr	r3, [r7, #12]
    2854:	3311      	adds	r3, #17
    2856:	005b      	lsls	r3, r3, #1
    2858:	683a      	ldr	r2, [r7, #0]
    285a:	18d3      	adds	r3, r2, r3
    285c:	881b      	ldrh	r3, [r3, #0]
    285e:	001a      	movs	r2, r3
    2860:	68bb      	ldr	r3, [r7, #8]
    2862:	189b      	adds	r3, r3, r2
    2864:	60bb      	str	r3, [r7, #8]
    2866:	e000      	b.n	286a <CheckSum_ICMP+0x36>
    2868:	46c0      	nop			; (mov r8, r8)
    286a:	68fb      	ldr	r3, [r7, #12]
    286c:	3301      	adds	r3, #1
    286e:	60fb      	str	r3, [r7, #12]
    2870:	1dbb      	adds	r3, r7, #6
    2872:	881a      	ldrh	r2, [r3, #0]
    2874:	68fb      	ldr	r3, [r7, #12]
    2876:	429a      	cmp	r2, r3
    2878:	d8e8      	bhi.n	284c <CheckSum_ICMP+0x18>
    287a:	68bb      	ldr	r3, [r7, #8]
    287c:	0c1a      	lsrs	r2, r3, #16
    287e:	68bb      	ldr	r3, [r7, #8]
    2880:	041b      	lsls	r3, r3, #16
    2882:	0c1b      	lsrs	r3, r3, #16
    2884:	18d3      	adds	r3, r2, r3
    2886:	60bb      	str	r3, [r7, #8]
    2888:	68bb      	ldr	r3, [r7, #8]
    288a:	b29b      	uxth	r3, r3
    288c:	43db      	mvns	r3, r3
    288e:	b29b      	uxth	r3, r3
    2890:	0018      	movs	r0, r3
    2892:	46bd      	mov	sp, r7
    2894:	b004      	add	sp, #16
    2896:	bd80      	pop	{r7, pc}

00002898 <Request_ICMP>:
    2898:	b580      	push	{r7, lr}
    289a:	b096      	sub	sp, #88	; 0x58
    289c:	af00      	add	r7, sp, #0
    289e:	4b73      	ldr	r3, [pc, #460]	; (2a6c <Request_ICMP+0x1d4>)
    28a0:	881a      	ldrh	r2, [r3, #0]
    28a2:	1d3b      	adds	r3, r7, #4
    28a4:	801a      	strh	r2, [r3, #0]
    28a6:	4b71      	ldr	r3, [pc, #452]	; (2a6c <Request_ICMP+0x1d4>)
    28a8:	885a      	ldrh	r2, [r3, #2]
    28aa:	1d3b      	adds	r3, r7, #4
    28ac:	805a      	strh	r2, [r3, #2]
    28ae:	4b6f      	ldr	r3, [pc, #444]	; (2a6c <Request_ICMP+0x1d4>)
    28b0:	889a      	ldrh	r2, [r3, #4]
    28b2:	1d3b      	adds	r3, r7, #4
    28b4:	809a      	strh	r2, [r3, #4]
    28b6:	23c0      	movs	r3, #192	; 0xc0
    28b8:	059b      	lsls	r3, r3, #22
    28ba:	885b      	ldrh	r3, [r3, #2]
    28bc:	b29a      	uxth	r2, r3
    28be:	1d3b      	adds	r3, r7, #4
    28c0:	80da      	strh	r2, [r3, #6]
    28c2:	23c0      	movs	r3, #192	; 0xc0
    28c4:	059b      	lsls	r3, r3, #22
    28c6:	889b      	ldrh	r3, [r3, #4]
    28c8:	b29a      	uxth	r2, r3
    28ca:	1d3b      	adds	r3, r7, #4
    28cc:	811a      	strh	r2, [r3, #8]
    28ce:	23c0      	movs	r3, #192	; 0xc0
    28d0:	059b      	lsls	r3, r3, #22
    28d2:	88db      	ldrh	r3, [r3, #6]
    28d4:	b29a      	uxth	r2, r3
    28d6:	1d3b      	adds	r3, r7, #4
    28d8:	815a      	strh	r2, [r3, #10]
    28da:	1d3b      	adds	r3, r7, #4
    28dc:	2208      	movs	r2, #8
    28de:	819a      	strh	r2, [r3, #12]
    28e0:	1d3b      	adds	r3, r7, #4
    28e2:	2245      	movs	r2, #69	; 0x45
    28e4:	81da      	strh	r2, [r3, #14]
    28e6:	1d3b      	adds	r3, r7, #4
    28e8:	22f0      	movs	r2, #240	; 0xf0
    28ea:	0192      	lsls	r2, r2, #6
    28ec:	821a      	strh	r2, [r3, #16]
    28ee:	4b60      	ldr	r3, [pc, #384]	; (2a70 <Request_ICMP+0x1d8>)
    28f0:	881a      	ldrh	r2, [r3, #0]
    28f2:	1d3b      	adds	r3, r7, #4
    28f4:	825a      	strh	r2, [r3, #18]
    28f6:	1d3b      	adds	r3, r7, #4
    28f8:	2200      	movs	r2, #0
    28fa:	829a      	strh	r2, [r3, #20]
    28fc:	1d3b      	adds	r3, r7, #4
    28fe:	22c0      	movs	r2, #192	; 0xc0
    2900:	0052      	lsls	r2, r2, #1
    2902:	82da      	strh	r2, [r3, #22]
    2904:	1d3b      	adds	r3, r7, #4
    2906:	2200      	movs	r2, #0
    2908:	831a      	strh	r2, [r3, #24]
    290a:	4b5a      	ldr	r3, [pc, #360]	; (2a74 <Request_ICMP+0x1dc>)
    290c:	881a      	ldrh	r2, [r3, #0]
    290e:	1d3b      	adds	r3, r7, #4
    2910:	835a      	strh	r2, [r3, #26]
    2912:	4b58      	ldr	r3, [pc, #352]	; (2a74 <Request_ICMP+0x1dc>)
    2914:	885a      	ldrh	r2, [r3, #2]
    2916:	1d3b      	adds	r3, r7, #4
    2918:	839a      	strh	r2, [r3, #28]
    291a:	4b54      	ldr	r3, [pc, #336]	; (2a6c <Request_ICMP+0x1d4>)
    291c:	88da      	ldrh	r2, [r3, #6]
    291e:	1d3b      	adds	r3, r7, #4
    2920:	83da      	strh	r2, [r3, #30]
    2922:	4b52      	ldr	r3, [pc, #328]	; (2a6c <Request_ICMP+0x1d4>)
    2924:	891a      	ldrh	r2, [r3, #8]
    2926:	1d3b      	adds	r3, r7, #4
    2928:	841a      	strh	r2, [r3, #32]
    292a:	1d3b      	adds	r3, r7, #4
    292c:	0018      	movs	r0, r3
    292e:	f7ff ff53 	bl	27d8 <CheckSum_IP>
    2932:	0003      	movs	r3, r0
    2934:	001a      	movs	r2, r3
    2936:	1d3b      	adds	r3, r7, #4
    2938:	831a      	strh	r2, [r3, #24]
    293a:	1d3b      	adds	r3, r7, #4
    293c:	2208      	movs	r2, #8
    293e:	845a      	strh	r2, [r3, #34]	; 0x22
    2940:	1d3b      	adds	r3, r7, #4
    2942:	2200      	movs	r2, #0
    2944:	849a      	strh	r2, [r3, #36]	; 0x24
    2946:	1d3b      	adds	r3, r7, #4
    2948:	2202      	movs	r2, #2
    294a:	84da      	strh	r2, [r3, #38]	; 0x26
    294c:	4b4a      	ldr	r3, [pc, #296]	; (2a78 <Request_ICMP+0x1e0>)
    294e:	881a      	ldrh	r2, [r3, #0]
    2950:	1d3b      	adds	r3, r7, #4
    2952:	851a      	strh	r2, [r3, #40]	; 0x28
    2954:	2300      	movs	r3, #0
    2956:	657b      	str	r3, [r7, #84]	; 0x54
    2958:	2300      	movs	r3, #0
    295a:	653b      	str	r3, [r7, #80]	; 0x50
    295c:	e021      	b.n	29a2 <Request_ICMP+0x10a>
    295e:	6d7b      	ldr	r3, [r7, #84]	; 0x54
    2960:	b2db      	uxtb	r3, r3
    2962:	3361      	adds	r3, #97	; 0x61
    2964:	b2da      	uxtb	r2, r3
    2966:	003b      	movs	r3, r7
    2968:	701a      	strb	r2, [r3, #0]
    296a:	6d7b      	ldr	r3, [r7, #84]	; 0x54
    296c:	b2db      	uxtb	r3, r3
    296e:	3362      	adds	r3, #98	; 0x62
    2970:	b2da      	uxtb	r2, r3
    2972:	003b      	movs	r3, r7
    2974:	705a      	strb	r2, [r3, #1]
    2976:	6d3b      	ldr	r3, [r7, #80]	; 0x50
    2978:	3315      	adds	r3, #21
    297a:	001a      	movs	r2, r3
    297c:	003b      	movs	r3, r7
    297e:	785b      	ldrb	r3, [r3, #1]
    2980:	021b      	lsls	r3, r3, #8
    2982:	b219      	sxth	r1, r3
    2984:	003b      	movs	r3, r7
    2986:	781b      	ldrb	r3, [r3, #0]
    2988:	b21b      	sxth	r3, r3
    298a:	430b      	orrs	r3, r1
    298c:	b21b      	sxth	r3, r3
    298e:	b299      	uxth	r1, r3
    2990:	1d3b      	adds	r3, r7, #4
    2992:	0052      	lsls	r2, r2, #1
    2994:	52d1      	strh	r1, [r2, r3]
    2996:	6d7b      	ldr	r3, [r7, #84]	; 0x54
    2998:	3302      	adds	r3, #2
    299a:	657b      	str	r3, [r7, #84]	; 0x54
    299c:	6d3b      	ldr	r3, [r7, #80]	; 0x50
    299e:	3301      	adds	r3, #1
    29a0:	653b      	str	r3, [r7, #80]	; 0x50
    29a2:	6d7b      	ldr	r3, [r7, #84]	; 0x54
    29a4:	2b1f      	cmp	r3, #31
    29a6:	d9da      	bls.n	295e <Request_ICMP+0xc6>
    29a8:	1d3b      	adds	r3, r7, #4
    29aa:	0019      	movs	r1, r3
    29ac:	2014      	movs	r0, #20
    29ae:	f7ff ff41 	bl	2834 <CheckSum_ICMP>
    29b2:	0003      	movs	r3, r0
    29b4:	001a      	movs	r2, r3
    29b6:	1d3b      	adds	r3, r7, #4
    29b8:	849a      	strh	r2, [r3, #36]	; 0x24
    29ba:	1d3b      	adds	r3, r7, #4
    29bc:	214a      	movs	r1, #74	; 0x4a
    29be:	0018      	movs	r0, r3
    29c0:	f7ff fcb2 	bl	2328 <SendPacket>
    29c4:	4b2a      	ldr	r3, [pc, #168]	; (2a70 <Request_ICMP+0x1d8>)
    29c6:	881b      	ldrh	r3, [r3, #0]
    29c8:	0a1b      	lsrs	r3, r3, #8
    29ca:	b29b      	uxth	r3, r3
    29cc:	b2da      	uxtb	r2, r3
    29ce:	003b      	movs	r3, r7
    29d0:	701a      	strb	r2, [r3, #0]
    29d2:	4b27      	ldr	r3, [pc, #156]	; (2a70 <Request_ICMP+0x1d8>)
    29d4:	881b      	ldrh	r3, [r3, #0]
    29d6:	b2da      	uxtb	r2, r3
    29d8:	003b      	movs	r3, r7
    29da:	705a      	strb	r2, [r3, #1]
    29dc:	003b      	movs	r3, r7
    29de:	781b      	ldrb	r3, [r3, #0]
    29e0:	3301      	adds	r3, #1
    29e2:	b2da      	uxtb	r2, r3
    29e4:	003b      	movs	r3, r7
    29e6:	701a      	strb	r2, [r3, #0]
    29e8:	003b      	movs	r3, r7
    29ea:	781b      	ldrb	r3, [r3, #0]
    29ec:	2b00      	cmp	r3, #0
    29ee:	d105      	bne.n	29fc <Request_ICMP+0x164>
    29f0:	003b      	movs	r3, r7
    29f2:	785b      	ldrb	r3, [r3, #1]
    29f4:	3301      	adds	r3, #1
    29f6:	b2da      	uxtb	r2, r3
    29f8:	003b      	movs	r3, r7
    29fa:	705a      	strb	r2, [r3, #1]
    29fc:	003b      	movs	r3, r7
    29fe:	781b      	ldrb	r3, [r3, #0]
    2a00:	021b      	lsls	r3, r3, #8
    2a02:	b21a      	sxth	r2, r3
    2a04:	003b      	movs	r3, r7
    2a06:	785b      	ldrb	r3, [r3, #1]
    2a08:	b21b      	sxth	r3, r3
    2a0a:	4313      	orrs	r3, r2
    2a0c:	b21b      	sxth	r3, r3
    2a0e:	b29a      	uxth	r2, r3
    2a10:	4b17      	ldr	r3, [pc, #92]	; (2a70 <Request_ICMP+0x1d8>)
    2a12:	801a      	strh	r2, [r3, #0]
    2a14:	4b18      	ldr	r3, [pc, #96]	; (2a78 <Request_ICMP+0x1e0>)
    2a16:	881b      	ldrh	r3, [r3, #0]
    2a18:	0a1b      	lsrs	r3, r3, #8
    2a1a:	b29b      	uxth	r3, r3
    2a1c:	b2da      	uxtb	r2, r3
    2a1e:	003b      	movs	r3, r7
    2a20:	701a      	strb	r2, [r3, #0]
    2a22:	4b15      	ldr	r3, [pc, #84]	; (2a78 <Request_ICMP+0x1e0>)
    2a24:	881b      	ldrh	r3, [r3, #0]
    2a26:	b2da      	uxtb	r2, r3
    2a28:	003b      	movs	r3, r7
    2a2a:	705a      	strb	r2, [r3, #1]
    2a2c:	003b      	movs	r3, r7
    2a2e:	781b      	ldrb	r3, [r3, #0]
    2a30:	3301      	adds	r3, #1
    2a32:	b2da      	uxtb	r2, r3
    2a34:	003b      	movs	r3, r7
    2a36:	701a      	strb	r2, [r3, #0]
    2a38:	003b      	movs	r3, r7
    2a3a:	781b      	ldrb	r3, [r3, #0]
    2a3c:	2b00      	cmp	r3, #0
    2a3e:	d105      	bne.n	2a4c <Request_ICMP+0x1b4>
    2a40:	003b      	movs	r3, r7
    2a42:	785b      	ldrb	r3, [r3, #1]
    2a44:	3301      	adds	r3, #1
    2a46:	b2da      	uxtb	r2, r3
    2a48:	003b      	movs	r3, r7
    2a4a:	705a      	strb	r2, [r3, #1]
    2a4c:	003b      	movs	r3, r7
    2a4e:	781b      	ldrb	r3, [r3, #0]
    2a50:	021b      	lsls	r3, r3, #8
    2a52:	b21a      	sxth	r2, r3
    2a54:	003b      	movs	r3, r7
    2a56:	785b      	ldrb	r3, [r3, #1]
    2a58:	b21b      	sxth	r3, r3
    2a5a:	4313      	orrs	r3, r2
    2a5c:	b21b      	sxth	r3, r3
    2a5e:	b29a      	uxth	r2, r3
    2a60:	4b05      	ldr	r3, [pc, #20]	; (2a78 <Request_ICMP+0x1e0>)
    2a62:	801a      	strh	r2, [r3, #0]
    2a64:	46c0      	nop			; (mov r8, r8)
    2a66:	46bd      	mov	sp, r7
    2a68:	b016      	add	sp, #88	; 0x58
    2a6a:	bd80      	pop	{r7, pc}
    2a6c:	20004d1c 	.word	0x20004d1c
    2a70:	20004d30 	.word	0x20004d30
    2a74:	2000000c 	.word	0x2000000c
    2a78:	20004d32 	.word	0x20004d32

00002a7c <Answear_ICMP>:
    2a7c:	b580      	push	{r7, lr}
    2a7e:	b082      	sub	sp, #8
    2a80:	af00      	add	r7, sp, #0
    2a82:	4b53      	ldr	r3, [pc, #332]	; (2bd0 <Answear_ICMP+0x154>)
    2a84:	4a53      	ldr	r2, [pc, #332]	; (2bd4 <Answear_ICMP+0x158>)
    2a86:	5a9a      	ldrh	r2, [r3, r2]
    2a88:	1cbb      	adds	r3, r7, #2
    2a8a:	3a26      	subs	r2, #38	; 0x26
    2a8c:	801a      	strh	r2, [r3, #0]
    2a8e:	1cbb      	adds	r3, r7, #2
    2a90:	881b      	ldrh	r3, [r3, #0]
    2a92:	2201      	movs	r2, #1
    2a94:	4013      	ands	r3, r2
    2a96:	d017      	beq.n	2ac8 <Answear_ICMP+0x4c>
    2a98:	1cbb      	adds	r3, r7, #2
    2a9a:	881b      	ldrh	r3, [r3, #0]
    2a9c:	3301      	adds	r3, #1
    2a9e:	105a      	asrs	r2, r3, #1
    2aa0:	1cbb      	adds	r3, r7, #2
    2aa2:	801a      	strh	r2, [r3, #0]
    2aa4:	1cbb      	adds	r3, r7, #2
    2aa6:	881b      	ldrh	r3, [r3, #0]
    2aa8:	3310      	adds	r3, #16
    2aaa:	001a      	movs	r2, r3
    2aac:	1cbb      	adds	r3, r7, #2
    2aae:	881b      	ldrh	r3, [r3, #0]
    2ab0:	3310      	adds	r3, #16
    2ab2:	0019      	movs	r1, r3
    2ab4:	4b46      	ldr	r3, [pc, #280]	; (2bd0 <Answear_ICMP+0x154>)
    2ab6:	0049      	lsls	r1, r1, #1
    2ab8:	5acb      	ldrh	r3, [r1, r3]
    2aba:	21ff      	movs	r1, #255	; 0xff
    2abc:	400b      	ands	r3, r1
    2abe:	b299      	uxth	r1, r3
    2ac0:	4b43      	ldr	r3, [pc, #268]	; (2bd0 <Answear_ICMP+0x154>)
    2ac2:	0052      	lsls	r2, r2, #1
    2ac4:	52d1      	strh	r1, [r2, r3]
    2ac6:	e004      	b.n	2ad2 <Answear_ICMP+0x56>
    2ac8:	1cbb      	adds	r3, r7, #2
    2aca:	1cba      	adds	r2, r7, #2
    2acc:	8812      	ldrh	r2, [r2, #0]
    2ace:	0852      	lsrs	r2, r2, #1
    2ad0:	801a      	strh	r2, [r3, #0]
    2ad2:	4b3f      	ldr	r3, [pc, #252]	; (2bd0 <Answear_ICMP+0x154>)
    2ad4:	88da      	ldrh	r2, [r3, #6]
    2ad6:	4b40      	ldr	r3, [pc, #256]	; (2bd8 <Answear_ICMP+0x15c>)
    2ad8:	801a      	strh	r2, [r3, #0]
    2ada:	4b3d      	ldr	r3, [pc, #244]	; (2bd0 <Answear_ICMP+0x154>)
    2adc:	891a      	ldrh	r2, [r3, #8]
    2ade:	4b3e      	ldr	r3, [pc, #248]	; (2bd8 <Answear_ICMP+0x15c>)
    2ae0:	805a      	strh	r2, [r3, #2]
    2ae2:	4b3b      	ldr	r3, [pc, #236]	; (2bd0 <Answear_ICMP+0x154>)
    2ae4:	895a      	ldrh	r2, [r3, #10]
    2ae6:	4b3c      	ldr	r3, [pc, #240]	; (2bd8 <Answear_ICMP+0x15c>)
    2ae8:	809a      	strh	r2, [r3, #4]
    2aea:	23c0      	movs	r3, #192	; 0xc0
    2aec:	059b      	lsls	r3, r3, #22
    2aee:	885b      	ldrh	r3, [r3, #2]
    2af0:	b29a      	uxth	r2, r3
    2af2:	4b39      	ldr	r3, [pc, #228]	; (2bd8 <Answear_ICMP+0x15c>)
    2af4:	80da      	strh	r2, [r3, #6]
    2af6:	23c0      	movs	r3, #192	; 0xc0
    2af8:	059b      	lsls	r3, r3, #22
    2afa:	889b      	ldrh	r3, [r3, #4]
    2afc:	b29a      	uxth	r2, r3
    2afe:	4b36      	ldr	r3, [pc, #216]	; (2bd8 <Answear_ICMP+0x15c>)
    2b00:	811a      	strh	r2, [r3, #8]
    2b02:	23c0      	movs	r3, #192	; 0xc0
    2b04:	059b      	lsls	r3, r3, #22
    2b06:	88db      	ldrh	r3, [r3, #6]
    2b08:	b29a      	uxth	r2, r3
    2b0a:	4b33      	ldr	r3, [pc, #204]	; (2bd8 <Answear_ICMP+0x15c>)
    2b0c:	815a      	strh	r2, [r3, #10]
    2b0e:	4b30      	ldr	r3, [pc, #192]	; (2bd0 <Answear_ICMP+0x154>)
    2b10:	899a      	ldrh	r2, [r3, #12]
    2b12:	4b31      	ldr	r3, [pc, #196]	; (2bd8 <Answear_ICMP+0x15c>)
    2b14:	819a      	strh	r2, [r3, #12]
    2b16:	2307      	movs	r3, #7
    2b18:	607b      	str	r3, [r7, #4]
    2b1a:	e00a      	b.n	2b32 <Answear_ICMP+0xb6>
    2b1c:	4b2c      	ldr	r3, [pc, #176]	; (2bd0 <Answear_ICMP+0x154>)
    2b1e:	687a      	ldr	r2, [r7, #4]
    2b20:	0052      	lsls	r2, r2, #1
    2b22:	5ad1      	ldrh	r1, [r2, r3]
    2b24:	4b2c      	ldr	r3, [pc, #176]	; (2bd8 <Answear_ICMP+0x15c>)
    2b26:	687a      	ldr	r2, [r7, #4]
    2b28:	0052      	lsls	r2, r2, #1
    2b2a:	52d1      	strh	r1, [r2, r3]
    2b2c:	687b      	ldr	r3, [r7, #4]
    2b2e:	3301      	adds	r3, #1
    2b30:	607b      	str	r3, [r7, #4]
    2b32:	687b      	ldr	r3, [r7, #4]
    2b34:	2b0b      	cmp	r3, #11
    2b36:	d9f1      	bls.n	2b1c <Answear_ICMP+0xa0>
    2b38:	4b25      	ldr	r3, [pc, #148]	; (2bd0 <Answear_ICMP+0x154>)
    2b3a:	0018      	movs	r0, r3
    2b3c:	f7ff fe4c 	bl	27d8 <CheckSum_IP>
    2b40:	0003      	movs	r3, r0
    2b42:	001a      	movs	r2, r3
    2b44:	4b24      	ldr	r3, [pc, #144]	; (2bd8 <Answear_ICMP+0x15c>)
    2b46:	831a      	strh	r2, [r3, #24]
    2b48:	4b21      	ldr	r3, [pc, #132]	; (2bd0 <Answear_ICMP+0x154>)
    2b4a:	8bda      	ldrh	r2, [r3, #30]
    2b4c:	4b22      	ldr	r3, [pc, #136]	; (2bd8 <Answear_ICMP+0x15c>)
    2b4e:	835a      	strh	r2, [r3, #26]
    2b50:	4b1f      	ldr	r3, [pc, #124]	; (2bd0 <Answear_ICMP+0x154>)
    2b52:	8c1a      	ldrh	r2, [r3, #32]
    2b54:	4b20      	ldr	r3, [pc, #128]	; (2bd8 <Answear_ICMP+0x15c>)
    2b56:	839a      	strh	r2, [r3, #28]
    2b58:	4b1d      	ldr	r3, [pc, #116]	; (2bd0 <Answear_ICMP+0x154>)
    2b5a:	8b5a      	ldrh	r2, [r3, #26]
    2b5c:	4b1e      	ldr	r3, [pc, #120]	; (2bd8 <Answear_ICMP+0x15c>)
    2b5e:	83da      	strh	r2, [r3, #30]
    2b60:	4b1b      	ldr	r3, [pc, #108]	; (2bd0 <Answear_ICMP+0x154>)
    2b62:	8b9a      	ldrh	r2, [r3, #28]
    2b64:	4b1c      	ldr	r3, [pc, #112]	; (2bd8 <Answear_ICMP+0x15c>)
    2b66:	841a      	strh	r2, [r3, #32]
    2b68:	4b1b      	ldr	r3, [pc, #108]	; (2bd8 <Answear_ICMP+0x15c>)
    2b6a:	2200      	movs	r2, #0
    2b6c:	845a      	strh	r2, [r3, #34]	; 0x22
    2b6e:	4b18      	ldr	r3, [pc, #96]	; (2bd0 <Answear_ICMP+0x154>)
    2b70:	2200      	movs	r2, #0
    2b72:	845a      	strh	r2, [r3, #34]	; 0x22
    2b74:	4a16      	ldr	r2, [pc, #88]	; (2bd0 <Answear_ICMP+0x154>)
    2b76:	1cbb      	adds	r3, r7, #2
    2b78:	881b      	ldrh	r3, [r3, #0]
    2b7a:	0011      	movs	r1, r2
    2b7c:	0018      	movs	r0, r3
    2b7e:	f7ff fe59 	bl	2834 <CheckSum_ICMP>
    2b82:	0003      	movs	r3, r0
    2b84:	001a      	movs	r2, r3
    2b86:	4b14      	ldr	r3, [pc, #80]	; (2bd8 <Answear_ICMP+0x15c>)
    2b88:	849a      	strh	r2, [r3, #36]	; 0x24
    2b8a:	2313      	movs	r3, #19
    2b8c:	607b      	str	r3, [r7, #4]
    2b8e:	e00a      	b.n	2ba6 <Answear_ICMP+0x12a>
    2b90:	4b0f      	ldr	r3, [pc, #60]	; (2bd0 <Answear_ICMP+0x154>)
    2b92:	687a      	ldr	r2, [r7, #4]
    2b94:	0052      	lsls	r2, r2, #1
    2b96:	5ad1      	ldrh	r1, [r2, r3]
    2b98:	4b0f      	ldr	r3, [pc, #60]	; (2bd8 <Answear_ICMP+0x15c>)
    2b9a:	687a      	ldr	r2, [r7, #4]
    2b9c:	0052      	lsls	r2, r2, #1
    2b9e:	52d1      	strh	r1, [r2, r3]
    2ba0:	687b      	ldr	r3, [r7, #4]
    2ba2:	3301      	adds	r3, #1
    2ba4:	607b      	str	r3, [r7, #4]
    2ba6:	1cbb      	adds	r3, r7, #2
    2ba8:	881b      	ldrh	r3, [r3, #0]
    2baa:	3311      	adds	r3, #17
    2bac:	001a      	movs	r2, r3
    2bae:	687b      	ldr	r3, [r7, #4]
    2bb0:	429a      	cmp	r2, r3
    2bb2:	d8ed      	bhi.n	2b90 <Answear_ICMP+0x114>
    2bb4:	1cbb      	adds	r3, r7, #2
    2bb6:	881b      	ldrh	r3, [r3, #0]
    2bb8:	3311      	adds	r3, #17
    2bba:	005a      	lsls	r2, r3, #1
    2bbc:	4b06      	ldr	r3, [pc, #24]	; (2bd8 <Answear_ICMP+0x15c>)
    2bbe:	0011      	movs	r1, r2
    2bc0:	0018      	movs	r0, r3
    2bc2:	f7ff fbb1 	bl	2328 <SendPacket>
    2bc6:	46c0      	nop			; (mov r8, r8)
    2bc8:	46bd      	mov	sp, r7
    2bca:	b002      	add	sp, #8
    2bcc:	bd80      	pop	{r7, pc}
    2bce:	46c0      	nop			; (mov r8, r8)
    2bd0:	20004d38 	.word	0x20004d38
    2bd4:	000005dc 	.word	0x000005dc
    2bd8:	20005344 	.word	0x20005344

00002bdc <Send_UDP>:
    2bdc:	b590      	push	{r4, r7, lr}
    2bde:	b089      	sub	sp, #36	; 0x24
    2be0:	af00      	add	r7, sp, #0
    2be2:	6078      	str	r0, [r7, #4]
    2be4:	6039      	str	r1, [r7, #0]
    2be6:	4b86      	ldr	r3, [pc, #536]	; (2e00 <Send_UDP+0x224>)
    2be8:	881a      	ldrh	r2, [r3, #0]
    2bea:	4b86      	ldr	r3, [pc, #536]	; (2e04 <Send_UDP+0x228>)
    2bec:	801a      	strh	r2, [r3, #0]
    2bee:	4b84      	ldr	r3, [pc, #528]	; (2e00 <Send_UDP+0x224>)
    2bf0:	885a      	ldrh	r2, [r3, #2]
    2bf2:	4b84      	ldr	r3, [pc, #528]	; (2e04 <Send_UDP+0x228>)
    2bf4:	805a      	strh	r2, [r3, #2]
    2bf6:	4b82      	ldr	r3, [pc, #520]	; (2e00 <Send_UDP+0x224>)
    2bf8:	889a      	ldrh	r2, [r3, #4]
    2bfa:	4b82      	ldr	r3, [pc, #520]	; (2e04 <Send_UDP+0x228>)
    2bfc:	809a      	strh	r2, [r3, #4]
    2bfe:	23c0      	movs	r3, #192	; 0xc0
    2c00:	059b      	lsls	r3, r3, #22
    2c02:	885b      	ldrh	r3, [r3, #2]
    2c04:	b29a      	uxth	r2, r3
    2c06:	4b7f      	ldr	r3, [pc, #508]	; (2e04 <Send_UDP+0x228>)
    2c08:	80da      	strh	r2, [r3, #6]
    2c0a:	23c0      	movs	r3, #192	; 0xc0
    2c0c:	059b      	lsls	r3, r3, #22
    2c0e:	889b      	ldrh	r3, [r3, #4]
    2c10:	b29a      	uxth	r2, r3
    2c12:	4b7c      	ldr	r3, [pc, #496]	; (2e04 <Send_UDP+0x228>)
    2c14:	811a      	strh	r2, [r3, #8]
    2c16:	23c0      	movs	r3, #192	; 0xc0
    2c18:	059b      	lsls	r3, r3, #22
    2c1a:	88db      	ldrh	r3, [r3, #6]
    2c1c:	b29a      	uxth	r2, r3
    2c1e:	4b79      	ldr	r3, [pc, #484]	; (2e04 <Send_UDP+0x228>)
    2c20:	815a      	strh	r2, [r3, #10]
    2c22:	4b78      	ldr	r3, [pc, #480]	; (2e04 <Send_UDP+0x228>)
    2c24:	2208      	movs	r2, #8
    2c26:	819a      	strh	r2, [r3, #12]
    2c28:	4b76      	ldr	r3, [pc, #472]	; (2e04 <Send_UDP+0x228>)
    2c2a:	2245      	movs	r2, #69	; 0x45
    2c2c:	81da      	strh	r2, [r3, #14]
    2c2e:	4b75      	ldr	r3, [pc, #468]	; (2e04 <Send_UDP+0x228>)
    2c30:	22f0      	movs	r2, #240	; 0xf0
    2c32:	0192      	lsls	r2, r2, #6
    2c34:	821a      	strh	r2, [r3, #16]
    2c36:	4b74      	ldr	r3, [pc, #464]	; (2e08 <Send_UDP+0x22c>)
    2c38:	881a      	ldrh	r2, [r3, #0]
    2c3a:	4b72      	ldr	r3, [pc, #456]	; (2e04 <Send_UDP+0x228>)
    2c3c:	825a      	strh	r2, [r3, #18]
    2c3e:	4b71      	ldr	r3, [pc, #452]	; (2e04 <Send_UDP+0x228>)
    2c40:	2200      	movs	r2, #0
    2c42:	829a      	strh	r2, [r3, #20]
    2c44:	4b6f      	ldr	r3, [pc, #444]	; (2e04 <Send_UDP+0x228>)
    2c46:	228c      	movs	r2, #140	; 0x8c
    2c48:	0152      	lsls	r2, r2, #5
    2c4a:	82da      	strh	r2, [r3, #22]
    2c4c:	4b6d      	ldr	r3, [pc, #436]	; (2e04 <Send_UDP+0x228>)
    2c4e:	2200      	movs	r2, #0
    2c50:	831a      	strh	r2, [r3, #24]
    2c52:	4b6e      	ldr	r3, [pc, #440]	; (2e0c <Send_UDP+0x230>)
    2c54:	881a      	ldrh	r2, [r3, #0]
    2c56:	4b6b      	ldr	r3, [pc, #428]	; (2e04 <Send_UDP+0x228>)
    2c58:	835a      	strh	r2, [r3, #26]
    2c5a:	4b6c      	ldr	r3, [pc, #432]	; (2e0c <Send_UDP+0x230>)
    2c5c:	885a      	ldrh	r2, [r3, #2]
    2c5e:	4b69      	ldr	r3, [pc, #420]	; (2e04 <Send_UDP+0x228>)
    2c60:	839a      	strh	r2, [r3, #28]
    2c62:	4b67      	ldr	r3, [pc, #412]	; (2e00 <Send_UDP+0x224>)
    2c64:	88da      	ldrh	r2, [r3, #6]
    2c66:	4b67      	ldr	r3, [pc, #412]	; (2e04 <Send_UDP+0x228>)
    2c68:	83da      	strh	r2, [r3, #30]
    2c6a:	4b65      	ldr	r3, [pc, #404]	; (2e00 <Send_UDP+0x224>)
    2c6c:	891a      	ldrh	r2, [r3, #8]
    2c6e:	4b65      	ldr	r3, [pc, #404]	; (2e04 <Send_UDP+0x228>)
    2c70:	841a      	strh	r2, [r3, #32]
    2c72:	2316      	movs	r3, #22
    2c74:	18fb      	adds	r3, r7, r3
    2c76:	4a66      	ldr	r2, [pc, #408]	; (2e10 <Send_UDP+0x234>)
    2c78:	801a      	strh	r2, [r3, #0]
    2c7a:	2316      	movs	r3, #22
    2c7c:	18fb      	adds	r3, r7, r3
    2c7e:	2216      	movs	r2, #22
    2c80:	18ba      	adds	r2, r7, r2
    2c82:	8812      	ldrh	r2, [r2, #0]
    2c84:	ba52      	rev16	r2, r2
    2c86:	801a      	strh	r2, [r3, #0]
    2c88:	4b62      	ldr	r3, [pc, #392]	; (2e14 <Send_UDP+0x238>)
    2c8a:	881a      	ldrh	r2, [r3, #0]
    2c8c:	2314      	movs	r3, #20
    2c8e:	18fb      	adds	r3, r7, r3
    2c90:	ba52      	rev16	r2, r2
    2c92:	801a      	strh	r2, [r3, #0]
    2c94:	4b5b      	ldr	r3, [pc, #364]	; (2e04 <Send_UDP+0x228>)
    2c96:	2216      	movs	r2, #22
    2c98:	18ba      	adds	r2, r7, r2
    2c9a:	8812      	ldrh	r2, [r2, #0]
    2c9c:	845a      	strh	r2, [r3, #34]	; 0x22
    2c9e:	4b59      	ldr	r3, [pc, #356]	; (2e04 <Send_UDP+0x228>)
    2ca0:	2214      	movs	r2, #20
    2ca2:	18ba      	adds	r2, r7, r2
    2ca4:	8812      	ldrh	r2, [r2, #0]
    2ca6:	849a      	strh	r2, [r3, #36]	; 0x24
    2ca8:	4b56      	ldr	r3, [pc, #344]	; (2e04 <Send_UDP+0x228>)
    2caa:	22c0      	movs	r2, #192	; 0xc0
    2cac:	0112      	lsls	r2, r2, #4
    2cae:	84da      	strh	r2, [r3, #38]	; 0x26
    2cb0:	4b54      	ldr	r3, [pc, #336]	; (2e04 <Send_UDP+0x228>)
    2cb2:	2200      	movs	r2, #0
    2cb4:	851a      	strh	r2, [r3, #40]	; 0x28
    2cb6:	4b58      	ldr	r3, [pc, #352]	; (2e18 <Send_UDP+0x23c>)
    2cb8:	61bb      	str	r3, [r7, #24]
    2cba:	683a      	ldr	r2, [r7, #0]
    2cbc:	23fe      	movs	r3, #254	; 0xfe
    2cbe:	005b      	lsls	r3, r3, #1
    2cc0:	429a      	cmp	r2, r3
    2cc2:	dd02      	ble.n	2cca <Send_UDP+0xee>
    2cc4:	23fe      	movs	r3, #254	; 0xfe
    2cc6:	005b      	lsls	r3, r3, #1
    2cc8:	603b      	str	r3, [r7, #0]
    2cca:	2300      	movs	r3, #0
    2ccc:	61fb      	str	r3, [r7, #28]
    2cce:	e00a      	b.n	2ce6 <Send_UDP+0x10a>
    2cd0:	69bb      	ldr	r3, [r7, #24]
    2cd2:	1c5a      	adds	r2, r3, #1
    2cd4:	61ba      	str	r2, [r7, #24]
    2cd6:	687a      	ldr	r2, [r7, #4]
    2cd8:	1c51      	adds	r1, r2, #1
    2cda:	6079      	str	r1, [r7, #4]
    2cdc:	7812      	ldrb	r2, [r2, #0]
    2cde:	701a      	strb	r2, [r3, #0]
    2ce0:	69fb      	ldr	r3, [r7, #28]
    2ce2:	3301      	adds	r3, #1
    2ce4:	61fb      	str	r3, [r7, #28]
    2ce6:	683b      	ldr	r3, [r7, #0]
    2ce8:	69fa      	ldr	r2, [r7, #28]
    2cea:	429a      	cmp	r2, r3
    2cec:	d3f0      	bcc.n	2cd0 <Send_UDP+0xf4>
    2cee:	683b      	ldr	r3, [r7, #0]
    2cf0:	b29a      	uxth	r2, r3
    2cf2:	2312      	movs	r3, #18
    2cf4:	18fb      	adds	r3, r7, r3
    2cf6:	321c      	adds	r2, #28
    2cf8:	801a      	strh	r2, [r3, #0]
    2cfa:	2312      	movs	r3, #18
    2cfc:	18fb      	adds	r3, r7, r3
    2cfe:	881b      	ldrh	r3, [r3, #0]
    2d00:	021b      	lsls	r3, r3, #8
    2d02:	b29a      	uxth	r2, r3
    2d04:	2312      	movs	r3, #18
    2d06:	18fb      	adds	r3, r7, r3
    2d08:	881b      	ldrh	r3, [r3, #0]
    2d0a:	0a1b      	lsrs	r3, r3, #8
    2d0c:	b29b      	uxth	r3, r3
    2d0e:	18d3      	adds	r3, r2, r3
    2d10:	b29a      	uxth	r2, r3
    2d12:	4b3c      	ldr	r3, [pc, #240]	; (2e04 <Send_UDP+0x228>)
    2d14:	821a      	strh	r2, [r3, #16]
    2d16:	4b3b      	ldr	r3, [pc, #236]	; (2e04 <Send_UDP+0x228>)
    2d18:	0018      	movs	r0, r3
    2d1a:	f7ff fd5d 	bl	27d8 <CheckSum_IP>
    2d1e:	0003      	movs	r3, r0
    2d20:	001a      	movs	r2, r3
    2d22:	4b38      	ldr	r3, [pc, #224]	; (2e04 <Send_UDP+0x228>)
    2d24:	831a      	strh	r2, [r3, #24]
    2d26:	683b      	ldr	r3, [r7, #0]
    2d28:	b29a      	uxth	r2, r3
    2d2a:	2310      	movs	r3, #16
    2d2c:	18fb      	adds	r3, r7, r3
    2d2e:	3208      	adds	r2, #8
    2d30:	801a      	strh	r2, [r3, #0]
    2d32:	2310      	movs	r3, #16
    2d34:	18fb      	adds	r3, r7, r3
    2d36:	881b      	ldrh	r3, [r3, #0]
    2d38:	021b      	lsls	r3, r3, #8
    2d3a:	b29a      	uxth	r2, r3
    2d3c:	2310      	movs	r3, #16
    2d3e:	18fb      	adds	r3, r7, r3
    2d40:	881b      	ldrh	r3, [r3, #0]
    2d42:	0a1b      	lsrs	r3, r3, #8
    2d44:	b29b      	uxth	r3, r3
    2d46:	18d3      	adds	r3, r2, r3
    2d48:	b29a      	uxth	r2, r3
    2d4a:	4b2e      	ldr	r3, [pc, #184]	; (2e04 <Send_UDP+0x228>)
    2d4c:	84da      	strh	r2, [r3, #38]	; 0x26
    2d4e:	683b      	ldr	r3, [r7, #0]
    2d50:	b29b      	uxth	r3, r3
    2d52:	3308      	adds	r3, #8
    2d54:	b29b      	uxth	r3, r3
    2d56:	220e      	movs	r2, #14
    2d58:	18bc      	adds	r4, r7, r2
    2d5a:	4a2a      	ldr	r2, [pc, #168]	; (2e04 <Send_UDP+0x228>)
    2d5c:	0011      	movs	r1, r2
    2d5e:	0018      	movs	r0, r3
    2d60:	f7ff fc8a 	bl	2678 <CheckSum_UDP>
    2d64:	0003      	movs	r3, r0
    2d66:	8023      	strh	r3, [r4, #0]
    2d68:	230e      	movs	r3, #14
    2d6a:	18fb      	adds	r3, r7, r3
    2d6c:	881b      	ldrh	r3, [r3, #0]
    2d6e:	021b      	lsls	r3, r3, #8
    2d70:	b29a      	uxth	r2, r3
    2d72:	230e      	movs	r3, #14
    2d74:	18fb      	adds	r3, r7, r3
    2d76:	881b      	ldrh	r3, [r3, #0]
    2d78:	0a1b      	lsrs	r3, r3, #8
    2d7a:	b29b      	uxth	r3, r3
    2d7c:	18d3      	adds	r3, r2, r3
    2d7e:	b29a      	uxth	r2, r3
    2d80:	4b20      	ldr	r3, [pc, #128]	; (2e04 <Send_UDP+0x228>)
    2d82:	851a      	strh	r2, [r3, #40]	; 0x28
    2d84:	683b      	ldr	r3, [r7, #0]
    2d86:	332a      	adds	r3, #42	; 0x2a
    2d88:	001a      	movs	r2, r3
    2d8a:	4b1e      	ldr	r3, [pc, #120]	; (2e04 <Send_UDP+0x228>)
    2d8c:	0011      	movs	r1, r2
    2d8e:	0018      	movs	r0, r3
    2d90:	f7ff faca 	bl	2328 <SendPacket>
    2d94:	4b1c      	ldr	r3, [pc, #112]	; (2e08 <Send_UDP+0x22c>)
    2d96:	881b      	ldrh	r3, [r3, #0]
    2d98:	0a1b      	lsrs	r3, r3, #8
    2d9a:	b29b      	uxth	r3, r3
    2d9c:	b2da      	uxtb	r2, r3
    2d9e:	230c      	movs	r3, #12
    2da0:	18fb      	adds	r3, r7, r3
    2da2:	701a      	strb	r2, [r3, #0]
    2da4:	4b18      	ldr	r3, [pc, #96]	; (2e08 <Send_UDP+0x22c>)
    2da6:	881b      	ldrh	r3, [r3, #0]
    2da8:	b2da      	uxtb	r2, r3
    2daa:	230c      	movs	r3, #12
    2dac:	18fb      	adds	r3, r7, r3
    2dae:	705a      	strb	r2, [r3, #1]
    2db0:	230c      	movs	r3, #12
    2db2:	18fb      	adds	r3, r7, r3
    2db4:	781b      	ldrb	r3, [r3, #0]
    2db6:	3301      	adds	r3, #1
    2db8:	b2da      	uxtb	r2, r3
    2dba:	230c      	movs	r3, #12
    2dbc:	18fb      	adds	r3, r7, r3
    2dbe:	701a      	strb	r2, [r3, #0]
    2dc0:	230c      	movs	r3, #12
    2dc2:	18fb      	adds	r3, r7, r3
    2dc4:	781b      	ldrb	r3, [r3, #0]
    2dc6:	2b00      	cmp	r3, #0
    2dc8:	d107      	bne.n	2dda <Send_UDP+0x1fe>
    2dca:	230c      	movs	r3, #12
    2dcc:	18fb      	adds	r3, r7, r3
    2dce:	785b      	ldrb	r3, [r3, #1]
    2dd0:	3301      	adds	r3, #1
    2dd2:	b2da      	uxtb	r2, r3
    2dd4:	230c      	movs	r3, #12
    2dd6:	18fb      	adds	r3, r7, r3
    2dd8:	705a      	strb	r2, [r3, #1]
    2dda:	230c      	movs	r3, #12
    2ddc:	18fb      	adds	r3, r7, r3
    2dde:	781b      	ldrb	r3, [r3, #0]
    2de0:	021b      	lsls	r3, r3, #8
    2de2:	b21a      	sxth	r2, r3
    2de4:	230c      	movs	r3, #12
    2de6:	18fb      	adds	r3, r7, r3
    2de8:	785b      	ldrb	r3, [r3, #1]
    2dea:	b21b      	sxth	r3, r3
    2dec:	4313      	orrs	r3, r2
    2dee:	b21b      	sxth	r3, r3
    2df0:	b29a      	uxth	r2, r3
    2df2:	4b05      	ldr	r3, [pc, #20]	; (2e08 <Send_UDP+0x22c>)
    2df4:	801a      	strh	r2, [r3, #0]
    2df6:	46c0      	nop			; (mov r8, r8)
    2df8:	46bd      	mov	sp, r7
    2dfa:	b009      	add	sp, #36	; 0x24
    2dfc:	bd90      	pop	{r4, r7, pc}
    2dfe:	46c0      	nop			; (mov r8, r8)
    2e00:	20004d1c 	.word	0x20004d1c
    2e04:	20005584 	.word	0x20005584
    2e08:	20004d30 	.word	0x20004d30
    2e0c:	2000000c 	.word	0x2000000c
    2e10:	00001234 	.word	0x00001234
    2e14:	20005318 	.word	0x20005318
    2e18:	200055ae 	.word	0x200055ae

00002e1c <PacketParser>:
    2e1c:	b580      	push	{r7, lr}
    2e1e:	b082      	sub	sp, #8
    2e20:	af00      	add	r7, sp, #0
    2e22:	4b49      	ldr	r3, [pc, #292]	; (2f48 <PacketParser+0x12c>)
    2e24:	899b      	ldrh	r3, [r3, #12]
    2e26:	2b08      	cmp	r3, #8
    2e28:	d005      	beq.n	2e36 <PacketParser+0x1a>
    2e2a:	22c1      	movs	r2, #193	; 0xc1
    2e2c:	00d2      	lsls	r2, r2, #3
    2e2e:	4293      	cmp	r3, r2
    2e30:	d100      	bne.n	2e34 <PacketParser+0x18>
    2e32:	e06b      	b.n	2f0c <PacketParser+0xf0>
    2e34:	e084      	b.n	2f40 <PacketParser+0x124>
    2e36:	4b44      	ldr	r3, [pc, #272]	; (2f48 <PacketParser+0x12c>)
    2e38:	8b9a      	ldrh	r2, [r3, #28]
    2e3a:	4b44      	ldr	r3, [pc, #272]	; (2f4c <PacketParser+0x130>)
    2e3c:	811a      	strh	r2, [r3, #8]
    2e3e:	4b42      	ldr	r3, [pc, #264]	; (2f48 <PacketParser+0x12c>)
    2e40:	8bda      	ldrh	r2, [r3, #30]
    2e42:	4b42      	ldr	r3, [pc, #264]	; (2f4c <PacketParser+0x130>)
    2e44:	80da      	strh	r2, [r3, #6]
    2e46:	4b41      	ldr	r3, [pc, #260]	; (2f4c <PacketParser+0x130>)
    2e48:	895b      	ldrh	r3, [r3, #10]
    2e4a:	2b00      	cmp	r3, #0
    2e4c:	d100      	bne.n	2e50 <PacketParser+0x34>
    2e4e:	e072      	b.n	2f36 <PacketParser+0x11a>
    2e50:	4b3d      	ldr	r3, [pc, #244]	; (2f48 <PacketParser+0x12c>)
    2e52:	8bda      	ldrh	r2, [r3, #30]
    2e54:	4b3e      	ldr	r3, [pc, #248]	; (2f50 <PacketParser+0x134>)
    2e56:	881b      	ldrh	r3, [r3, #0]
    2e58:	429a      	cmp	r2, r3
    2e5a:	d000      	beq.n	2e5e <PacketParser+0x42>
    2e5c:	e06d      	b.n	2f3a <PacketParser+0x11e>
    2e5e:	4b3a      	ldr	r3, [pc, #232]	; (2f48 <PacketParser+0x12c>)
    2e60:	8c1a      	ldrh	r2, [r3, #32]
    2e62:	4b3b      	ldr	r3, [pc, #236]	; (2f50 <PacketParser+0x134>)
    2e64:	885b      	ldrh	r3, [r3, #2]
    2e66:	429a      	cmp	r2, r3
    2e68:	d000      	beq.n	2e6c <PacketParser+0x50>
    2e6a:	e066      	b.n	2f3a <PacketParser+0x11e>
    2e6c:	4b36      	ldr	r3, [pc, #216]	; (2f48 <PacketParser+0x12c>)
    2e6e:	0018      	movs	r0, r3
    2e70:	f7ff fcb2 	bl	27d8 <CheckSum_IP>
    2e74:	0003      	movs	r3, r0
    2e76:	001a      	movs	r2, r3
    2e78:	4b33      	ldr	r3, [pc, #204]	; (2f48 <PacketParser+0x12c>)
    2e7a:	8b1b      	ldrh	r3, [r3, #24]
    2e7c:	429a      	cmp	r2, r3
    2e7e:	d15c      	bne.n	2f3a <PacketParser+0x11e>
    2e80:	4b31      	ldr	r3, [pc, #196]	; (2f48 <PacketParser+0x12c>)
    2e82:	8adb      	ldrh	r3, [r3, #22]
    2e84:	001a      	movs	r2, r3
    2e86:	23ff      	movs	r3, #255	; 0xff
    2e88:	021b      	lsls	r3, r3, #8
    2e8a:	401a      	ands	r2, r3
    2e8c:	2380      	movs	r3, #128	; 0x80
    2e8e:	005b      	lsls	r3, r3, #1
    2e90:	429a      	cmp	r2, r3
    2e92:	d110      	bne.n	2eb6 <PacketParser+0x9a>
    2e94:	4b2c      	ldr	r3, [pc, #176]	; (2f48 <PacketParser+0x12c>)
    2e96:	8c5b      	ldrh	r3, [r3, #34]	; 0x22
    2e98:	2b00      	cmp	r3, #0
    2e9a:	d105      	bne.n	2ea8 <PacketParser+0x8c>
    2e9c:	4b2d      	ldr	r3, [pc, #180]	; (2f54 <PacketParser+0x138>)
    2e9e:	681b      	ldr	r3, [r3, #0]
    2ea0:	1c5a      	adds	r2, r3, #1
    2ea2:	4b2c      	ldr	r3, [pc, #176]	; (2f54 <PacketParser+0x138>)
    2ea4:	601a      	str	r2, [r3, #0]
    2ea6:	e048      	b.n	2f3a <PacketParser+0x11e>
    2ea8:	4b27      	ldr	r3, [pc, #156]	; (2f48 <PacketParser+0x12c>)
    2eaa:	8c5b      	ldrh	r3, [r3, #34]	; 0x22
    2eac:	2b08      	cmp	r3, #8
    2eae:	d144      	bne.n	2f3a <PacketParser+0x11e>
    2eb0:	f7ff fde4 	bl	2a7c <Answear_ICMP>
    2eb4:	e041      	b.n	2f3a <PacketParser+0x11e>
    2eb6:	4b24      	ldr	r3, [pc, #144]	; (2f48 <PacketParser+0x12c>)
    2eb8:	8adb      	ldrh	r3, [r3, #22]
    2eba:	001a      	movs	r2, r3
    2ebc:	23ff      	movs	r3, #255	; 0xff
    2ebe:	021b      	lsls	r3, r3, #8
    2ec0:	401a      	ands	r2, r3
    2ec2:	2388      	movs	r3, #136	; 0x88
    2ec4:	015b      	lsls	r3, r3, #5
    2ec6:	429a      	cmp	r2, r3
    2ec8:	d137      	bne.n	2f3a <PacketParser+0x11e>
    2eca:	4b1f      	ldr	r3, [pc, #124]	; (2f48 <PacketParser+0x12c>)
    2ecc:	8c5b      	ldrh	r3, [r3, #34]	; 0x22
    2ece:	021b      	lsls	r3, r3, #8
    2ed0:	b29a      	uxth	r2, r3
    2ed2:	4b1d      	ldr	r3, [pc, #116]	; (2f48 <PacketParser+0x12c>)
    2ed4:	8c5b      	ldrh	r3, [r3, #34]	; 0x22
    2ed6:	0a1b      	lsrs	r3, r3, #8
    2ed8:	b29b      	uxth	r3, r3
    2eda:	18d3      	adds	r3, r2, r3
    2edc:	b29a      	uxth	r2, r3
    2ede:	4b1e      	ldr	r3, [pc, #120]	; (2f58 <PacketParser+0x13c>)
    2ee0:	801a      	strh	r2, [r3, #0]
    2ee2:	4b19      	ldr	r3, [pc, #100]	; (2f48 <PacketParser+0x12c>)
    2ee4:	8c9b      	ldrh	r3, [r3, #36]	; 0x24
    2ee6:	021b      	lsls	r3, r3, #8
    2ee8:	b299      	uxth	r1, r3
    2eea:	4b17      	ldr	r3, [pc, #92]	; (2f48 <PacketParser+0x12c>)
    2eec:	8c9b      	ldrh	r3, [r3, #36]	; 0x24
    2eee:	0a1b      	lsrs	r3, r3, #8
    2ef0:	b29a      	uxth	r2, r3
    2ef2:	1dbb      	adds	r3, r7, #6
    2ef4:	188a      	adds	r2, r1, r2
    2ef6:	801a      	strh	r2, [r3, #0]
    2ef8:	1dbb      	adds	r3, r7, #6
    2efa:	881b      	ldrh	r3, [r3, #0]
    2efc:	4a17      	ldr	r2, [pc, #92]	; (2f5c <PacketParser+0x140>)
    2efe:	4293      	cmp	r3, r2
    2f00:	d11b      	bne.n	2f3a <PacketParser+0x11e>
    2f02:	4b17      	ldr	r3, [pc, #92]	; (2f60 <PacketParser+0x144>)
    2f04:	0018      	movs	r0, r3
    2f06:	f001 f823 	bl	3f50 <mdb_proc_adu>
    2f0a:	e016      	b.n	2f3a <PacketParser+0x11e>
    2f0c:	4b0e      	ldr	r3, [pc, #56]	; (2f48 <PacketParser+0x12c>)
    2f0e:	8a9a      	ldrh	r2, [r3, #20]
    2f10:	2380      	movs	r3, #128	; 0x80
    2f12:	005b      	lsls	r3, r3, #1
    2f14:	429a      	cmp	r2, r3
    2f16:	d112      	bne.n	2f3e <PacketParser+0x122>
    2f18:	4b0b      	ldr	r3, [pc, #44]	; (2f48 <PacketParser+0x12c>)
    2f1a:	8cda      	ldrh	r2, [r3, #38]	; 0x26
    2f1c:	4b0c      	ldr	r3, [pc, #48]	; (2f50 <PacketParser+0x134>)
    2f1e:	881b      	ldrh	r3, [r3, #0]
    2f20:	429a      	cmp	r2, r3
    2f22:	d10c      	bne.n	2f3e <PacketParser+0x122>
    2f24:	4b08      	ldr	r3, [pc, #32]	; (2f48 <PacketParser+0x12c>)
    2f26:	8d1a      	ldrh	r2, [r3, #40]	; 0x28
    2f28:	4b09      	ldr	r3, [pc, #36]	; (2f50 <PacketParser+0x134>)
    2f2a:	885b      	ldrh	r3, [r3, #2]
    2f2c:	429a      	cmp	r2, r3
    2f2e:	d106      	bne.n	2f3e <PacketParser+0x122>
    2f30:	f7ff fb2e 	bl	2590 <Answear_ARP>
    2f34:	e003      	b.n	2f3e <PacketParser+0x122>
    2f36:	46c0      	nop			; (mov r8, r8)
    2f38:	e002      	b.n	2f40 <PacketParser+0x124>
    2f3a:	46c0      	nop			; (mov r8, r8)
    2f3c:	e000      	b.n	2f40 <PacketParser+0x124>
    2f3e:	46c0      	nop			; (mov r8, r8)
    2f40:	46c0      	nop			; (mov r8, r8)
    2f42:	46bd      	mov	sp, r7
    2f44:	b002      	add	sp, #8
    2f46:	bd80      	pop	{r7, pc}
    2f48:	20004d38 	.word	0x20004d38
    2f4c:	20004d1c 	.word	0x20004d1c
    2f50:	2000000c 	.word	0x2000000c
    2f54:	20004d34 	.word	0x20004d34
    2f58:	20005318 	.word	0x20005318
    2f5c:	00001234 	.word	0x00001234
    2f60:	20004d62 	.word	0x20004d62

00002f64 <threadPacketParser>:
    2f64:	b580      	push	{r7, lr}
    2f66:	b086      	sub	sp, #24
    2f68:	af00      	add	r7, sp, #0
    2f6a:	6078      	str	r0, [r7, #4]
    2f6c:	4b31      	ldr	r3, [pc, #196]	; (3034 <threadPacketParser+0xd0>)
    2f6e:	0018      	movs	r0, r3
    2f70:	f003 fa36 	bl	63e0 <osMutexCreate>
    2f74:	0002      	movs	r2, r0
    2f76:	4b30      	ldr	r3, [pc, #192]	; (3038 <threadPacketParser+0xd4>)
    2f78:	601a      	str	r2, [r3, #0]
    2f7a:	4b30      	ldr	r3, [pc, #192]	; (303c <threadPacketParser+0xd8>)
    2f7c:	0018      	movs	r0, r3
    2f7e:	f003 fa2f 	bl	63e0 <osMutexCreate>
    2f82:	0002      	movs	r2, r0
    2f84:	4b2e      	ldr	r3, [pc, #184]	; (3040 <threadPacketParser+0xdc>)
    2f86:	601a      	str	r2, [r3, #0]
    2f88:	230c      	movs	r3, #12
    2f8a:	18f8      	adds	r0, r7, r3
    2f8c:	23fa      	movs	r3, #250	; 0xfa
    2f8e:	005b      	lsls	r3, r3, #1
    2f90:	001a      	movs	r2, r3
    2f92:	2100      	movs	r1, #0
    2f94:	f003 f996 	bl	62c4 <osSignalWait>
    2f98:	230c      	movs	r3, #12
    2f9a:	18fb      	adds	r3, r7, r3
    2f9c:	681b      	ldr	r3, [r3, #0]
    2f9e:	2b08      	cmp	r3, #8
    2fa0:	d120      	bne.n	2fe4 <threadPacketParser+0x80>
    2fa2:	230c      	movs	r3, #12
    2fa4:	18fb      	adds	r3, r7, r3
    2fa6:	685b      	ldr	r3, [r3, #4]
    2fa8:	2b01      	cmp	r3, #1
    2faa:	d142      	bne.n	3032 <threadPacketParser+0xce>
    2fac:	4b25      	ldr	r3, [pc, #148]	; (3044 <threadPacketParser+0xe0>)
    2fae:	4a25      	ldr	r2, [pc, #148]	; (3044 <threadPacketParser+0xe0>)
    2fb0:	6812      	ldr	r2, [r2, #0]
    2fb2:	2180      	movs	r1, #128	; 0x80
    2fb4:	404a      	eors	r2, r1
    2fb6:	601a      	str	r2, [r3, #0]
    2fb8:	e00a      	b.n	2fd0 <threadPacketParser+0x6c>
    2fba:	4b23      	ldr	r3, [pc, #140]	; (3048 <threadPacketParser+0xe4>)
    2fbc:	0018      	movs	r0, r3
    2fbe:	f7ff f8bd 	bl	213c <ReadPacket>
    2fc2:	0003      	movs	r3, r0
    2fc4:	b299      	uxth	r1, r3
    2fc6:	4b20      	ldr	r3, [pc, #128]	; (3048 <threadPacketParser+0xe4>)
    2fc8:	4a20      	ldr	r2, [pc, #128]	; (304c <threadPacketParser+0xe8>)
    2fca:	5299      	strh	r1, [r3, r2]
    2fcc:	f7ff ff26 	bl	2e1c <PacketParser>
    2fd0:	23c0      	movs	r3, #192	; 0xc0
    2fd2:	059b      	lsls	r3, r3, #22
    2fd4:	8e1b      	ldrh	r3, [r3, #48]	; 0x30
    2fd6:	b29b      	uxth	r3, r3
    2fd8:	001a      	movs	r2, r3
    2fda:	23e0      	movs	r3, #224	; 0xe0
    2fdc:	4013      	ands	r3, r2
    2fde:	d1ec      	bne.n	2fba <threadPacketParser+0x56>
    2fe0:	46c0      	nop			; (mov r8, r8)
    2fe2:	e026      	b.n	3032 <threadPacketParser+0xce>
    2fe4:	230c      	movs	r3, #12
    2fe6:	18fb      	adds	r3, r7, r3
    2fe8:	681b      	ldr	r3, [r3, #0]
    2fea:	2b40      	cmp	r3, #64	; 0x40
    2fec:	d1cc      	bne.n	2f88 <threadPacketParser+0x24>
    2fee:	23c0      	movs	r3, #192	; 0xc0
    2ff0:	059b      	lsls	r3, r3, #22
    2ff2:	8edb      	ldrh	r3, [r3, #54]	; 0x36
    2ff4:	b29b      	uxth	r3, r3
    2ff6:	001a      	movs	r2, r3
    2ff8:	2302      	movs	r3, #2
    2ffa:	4013      	ands	r3, r2
    2ffc:	d104      	bne.n	3008 <threadPacketParser+0xa4>
    2ffe:	4b14      	ldr	r3, [pc, #80]	; (3050 <threadPacketParser+0xec>)
    3000:	2280      	movs	r2, #128	; 0x80
    3002:	0212      	lsls	r2, r2, #8
    3004:	621a      	str	r2, [r3, #32]
    3006:	e003      	b.n	3010 <threadPacketParser+0xac>
    3008:	4b11      	ldr	r3, [pc, #68]	; (3050 <threadPacketParser+0xec>)
    300a:	2280      	movs	r2, #128	; 0x80
    300c:	0212      	lsls	r2, r2, #8
    300e:	625a      	str	r2, [r3, #36]	; 0x24
    3010:	23c0      	movs	r3, #192	; 0xc0
    3012:	059b      	lsls	r3, r3, #22
    3014:	8edb      	ldrh	r3, [r3, #54]	; 0x36
    3016:	b29b      	uxth	r3, r3
    3018:	001a      	movs	r2, r3
    301a:	2308      	movs	r3, #8
    301c:	4013      	ands	r3, r2
    301e:	d104      	bne.n	302a <threadPacketParser+0xc6>
    3020:	4b0b      	ldr	r3, [pc, #44]	; (3050 <threadPacketParser+0xec>)
    3022:	2280      	movs	r2, #128	; 0x80
    3024:	01d2      	lsls	r2, r2, #7
    3026:	621a      	str	r2, [r3, #32]
    3028:	e7ae      	b.n	2f88 <threadPacketParser+0x24>
    302a:	4b09      	ldr	r3, [pc, #36]	; (3050 <threadPacketParser+0xec>)
    302c:	2280      	movs	r2, #128	; 0x80
    302e:	01d2      	lsls	r2, r2, #7
    3030:	625a      	str	r2, [r3, #36]	; 0x24
    3032:	e7a9      	b.n	2f88 <threadPacketParser+0x24>
    3034:	0000867c 	.word	0x0000867c
    3038:	2000532c 	.word	0x2000532c
    303c:	00008680 	.word	0x00008680
    3040:	20005340 	.word	0x20005340
    3044:	400c0000 	.word	0x400c0000
    3048:	20004d38 	.word	0x20004d38
    304c:	000005dc 	.word	0x000005dc
    3050:	400b0000 	.word	0x400b0000

00003054 <crc32>:
    3054:	b580      	push	{r7, lr}
    3056:	b084      	sub	sp, #16
    3058:	af00      	add	r7, sp, #0
    305a:	6078      	str	r0, [r7, #4]
    305c:	6039      	str	r1, [r7, #0]
    305e:	2301      	movs	r3, #1
    3060:	425b      	negs	r3, r3
    3062:	60bb      	str	r3, [r7, #8]
    3064:	2300      	movs	r3, #0
    3066:	60fb      	str	r3, [r7, #12]
    3068:	e012      	b.n	3090 <crc32+0x3c>
    306a:	68bb      	ldr	r3, [r7, #8]
    306c:	0a1a      	lsrs	r2, r3, #8
    306e:	68fb      	ldr	r3, [r7, #12]
    3070:	6879      	ldr	r1, [r7, #4]
    3072:	18cb      	adds	r3, r1, r3
    3074:	781b      	ldrb	r3, [r3, #0]
    3076:	0019      	movs	r1, r3
    3078:	68bb      	ldr	r3, [r7, #8]
    307a:	404b      	eors	r3, r1
    307c:	21ff      	movs	r1, #255	; 0xff
    307e:	4019      	ands	r1, r3
    3080:	4b08      	ldr	r3, [pc, #32]	; (30a4 <crc32+0x50>)
    3082:	0089      	lsls	r1, r1, #2
    3084:	58cb      	ldr	r3, [r1, r3]
    3086:	4053      	eors	r3, r2
    3088:	60bb      	str	r3, [r7, #8]
    308a:	68fb      	ldr	r3, [r7, #12]
    308c:	3301      	adds	r3, #1
    308e:	60fb      	str	r3, [r7, #12]
    3090:	68fa      	ldr	r2, [r7, #12]
    3092:	683b      	ldr	r3, [r7, #0]
    3094:	429a      	cmp	r2, r3
    3096:	d3e8      	bcc.n	306a <crc32+0x16>
    3098:	68bb      	ldr	r3, [r7, #8]
    309a:	0018      	movs	r0, r3
    309c:	46bd      	mov	sp, r7
    309e:	b004      	add	sp, #16
    30a0:	bd80      	pop	{r7, pc}
    30a2:	46c0      	nop			; (mov r8, r8)
    30a4:	00008684 	.word	0x00008684

000030a8 <crc16>:
    30a8:	b580      	push	{r7, lr}
    30aa:	b086      	sub	sp, #24
    30ac:	af00      	add	r7, sp, #0
    30ae:	6078      	str	r0, [r7, #4]
    30b0:	6039      	str	r1, [r7, #0]
    30b2:	2317      	movs	r3, #23
    30b4:	18fb      	adds	r3, r7, r3
    30b6:	22ff      	movs	r2, #255	; 0xff
    30b8:	701a      	strb	r2, [r3, #0]
    30ba:	2316      	movs	r3, #22
    30bc:	18fb      	adds	r3, r7, r3
    30be:	22ff      	movs	r2, #255	; 0xff
    30c0:	701a      	strb	r2, [r3, #0]
    30c2:	2300      	movs	r3, #0
    30c4:	613b      	str	r3, [r7, #16]
    30c6:	e01e      	b.n	3106 <crc16+0x5e>
    30c8:	693b      	ldr	r3, [r7, #16]
    30ca:	687a      	ldr	r2, [r7, #4]
    30cc:	18d3      	adds	r3, r2, r3
    30ce:	781a      	ldrb	r2, [r3, #0]
    30d0:	2317      	movs	r3, #23
    30d2:	18fb      	adds	r3, r7, r3
    30d4:	781b      	ldrb	r3, [r3, #0]
    30d6:	4053      	eors	r3, r2
    30d8:	b2db      	uxtb	r3, r3
    30da:	60fb      	str	r3, [r7, #12]
    30dc:	4a14      	ldr	r2, [pc, #80]	; (3130 <crc16+0x88>)
    30de:	68fb      	ldr	r3, [r7, #12]
    30e0:	18d3      	adds	r3, r2, r3
    30e2:	7819      	ldrb	r1, [r3, #0]
    30e4:	2317      	movs	r3, #23
    30e6:	18fb      	adds	r3, r7, r3
    30e8:	2216      	movs	r2, #22
    30ea:	18ba      	adds	r2, r7, r2
    30ec:	7812      	ldrb	r2, [r2, #0]
    30ee:	404a      	eors	r2, r1
    30f0:	701a      	strb	r2, [r3, #0]
    30f2:	2316      	movs	r3, #22
    30f4:	18fb      	adds	r3, r7, r3
    30f6:	490f      	ldr	r1, [pc, #60]	; (3134 <crc16+0x8c>)
    30f8:	68fa      	ldr	r2, [r7, #12]
    30fa:	188a      	adds	r2, r1, r2
    30fc:	7812      	ldrb	r2, [r2, #0]
    30fe:	701a      	strb	r2, [r3, #0]
    3100:	693b      	ldr	r3, [r7, #16]
    3102:	3301      	adds	r3, #1
    3104:	613b      	str	r3, [r7, #16]
    3106:	693a      	ldr	r2, [r7, #16]
    3108:	683b      	ldr	r3, [r7, #0]
    310a:	429a      	cmp	r2, r3
    310c:	dbdc      	blt.n	30c8 <crc16+0x20>
    310e:	2316      	movs	r3, #22
    3110:	18fb      	adds	r3, r7, r3
    3112:	781b      	ldrb	r3, [r3, #0]
    3114:	021b      	lsls	r3, r3, #8
    3116:	b21a      	sxth	r2, r3
    3118:	2317      	movs	r3, #23
    311a:	18fb      	adds	r3, r7, r3
    311c:	781b      	ldrb	r3, [r3, #0]
    311e:	b21b      	sxth	r3, r3
    3120:	4313      	orrs	r3, r2
    3122:	b21b      	sxth	r3, r3
    3124:	b29b      	uxth	r3, r3
    3126:	0018      	movs	r0, r3
    3128:	46bd      	mov	sp, r7
    312a:	b006      	add	sp, #24
    312c:	bd80      	pop	{r7, pc}
    312e:	46c0      	nop			; (mov r8, r8)
    3130:	00008a84 	.word	0x00008a84
    3134:	00008b84 	.word	0x00008b84

00003138 <eeprom_on>:
    3138:	b580      	push	{r7, lr}
    313a:	af00      	add	r7, sp, #0
    313c:	b672      	cpsid	i
    313e:	4b04      	ldr	r3, [pc, #16]	; (3150 <eeprom_on+0x18>)
    3140:	4a03      	ldr	r2, [pc, #12]	; (3150 <eeprom_on+0x18>)
    3142:	69d2      	ldr	r2, [r2, #28]
    3144:	2108      	movs	r1, #8
    3146:	430a      	orrs	r2, r1
    3148:	61da      	str	r2, [r3, #28]
    314a:	46c0      	nop			; (mov r8, r8)
    314c:	46bd      	mov	sp, r7
    314e:	bd80      	pop	{r7, pc}
    3150:	40020000 	.word	0x40020000

00003154 <eeprom_off>:
    3154:	b580      	push	{r7, lr}
    3156:	af00      	add	r7, sp, #0
    3158:	b662      	cpsie	i
    315a:	4b04      	ldr	r3, [pc, #16]	; (316c <eeprom_off+0x18>)
    315c:	4a03      	ldr	r2, [pc, #12]	; (316c <eeprom_off+0x18>)
    315e:	69d2      	ldr	r2, [r2, #28]
    3160:	2108      	movs	r1, #8
    3162:	438a      	bics	r2, r1
    3164:	61da      	str	r2, [r3, #28]
    3166:	46c0      	nop			; (mov r8, r8)
    3168:	46bd      	mov	sp, r7
    316a:	bd80      	pop	{r7, pc}
    316c:	40020000 	.word	0x40020000

00003170 <par_default>:
    3170:	b580      	push	{r7, lr}
    3172:	af00      	add	r7, sp, #0
    3174:	4b13      	ldr	r3, [pc, #76]	; (31c4 <par_default+0x54>)
    3176:	0018      	movs	r0, r3
    3178:	2314      	movs	r3, #20
    317a:	001a      	movs	r2, r3
    317c:	2100      	movs	r1, #0
    317e:	f001 fcc1 	bl	4b04 <memset>
    3182:	4b10      	ldr	r3, [pc, #64]	; (31c4 <par_default+0x54>)
    3184:	22bc      	movs	r2, #188	; 0xbc
    3186:	701a      	strb	r2, [r3, #0]
    3188:	4b0e      	ldr	r3, [pc, #56]	; (31c4 <par_default+0x54>)
    318a:	229a      	movs	r2, #154	; 0x9a
    318c:	705a      	strb	r2, [r3, #1]
    318e:	4b0d      	ldr	r3, [pc, #52]	; (31c4 <par_default+0x54>)
    3190:	2278      	movs	r2, #120	; 0x78
    3192:	709a      	strb	r2, [r3, #2]
    3194:	4b0b      	ldr	r3, [pc, #44]	; (31c4 <par_default+0x54>)
    3196:	2256      	movs	r2, #86	; 0x56
    3198:	70da      	strb	r2, [r3, #3]
    319a:	4b0a      	ldr	r3, [pc, #40]	; (31c4 <par_default+0x54>)
    319c:	2234      	movs	r2, #52	; 0x34
    319e:	711a      	strb	r2, [r3, #4]
    31a0:	4b08      	ldr	r3, [pc, #32]	; (31c4 <par_default+0x54>)
    31a2:	2212      	movs	r2, #18
    31a4:	715a      	strb	r2, [r3, #5]
    31a6:	4b07      	ldr	r3, [pc, #28]	; (31c4 <par_default+0x54>)
    31a8:	2201      	movs	r2, #1
    31aa:	719a      	strb	r2, [r3, #6]
    31ac:	4b05      	ldr	r3, [pc, #20]	; (31c4 <par_default+0x54>)
    31ae:	220a      	movs	r2, #10
    31b0:	725a      	strb	r2, [r3, #9]
    31b2:	4b04      	ldr	r3, [pc, #16]	; (31c4 <par_default+0x54>)
    31b4:	2202      	movs	r2, #2
    31b6:	729a      	strb	r2, [r3, #10]
    31b8:	4b02      	ldr	r3, [pc, #8]	; (31c4 <par_default+0x54>)
    31ba:	220a      	movs	r2, #10
    31bc:	735a      	strb	r2, [r3, #13]
    31be:	46c0      	nop			; (mov r8, r8)
    31c0:	46bd      	mov	sp, r7
    31c2:	bd80      	pop	{r7, pc}
    31c4:	20005b60 	.word	0x20005b60

000031c8 <par_save>:
    31c8:	b580      	push	{r7, lr}
    31ca:	b084      	sub	sp, #16
    31cc:	af00      	add	r7, sp, #0
    31ce:	f7ff ffb3 	bl	3138 <eeprom_on>
    31d2:	f005 f999 	bl	8508 <__eeprom_erase_page_veneer>
    31d6:	1e03      	subs	r3, r0, #0
    31d8:	d01b      	beq.n	3212 <par_save+0x4a>
    31da:	4b11      	ldr	r3, [pc, #68]	; (3220 <par_save+0x58>)
    31dc:	60bb      	str	r3, [r7, #8]
    31de:	2305      	movs	r3, #5
    31e0:	603b      	str	r3, [r7, #0]
    31e2:	2300      	movs	r3, #0
    31e4:	607b      	str	r3, [r7, #4]
    31e6:	2300      	movs	r3, #0
    31e8:	60fb      	str	r3, [r7, #12]
    31ea:	e00e      	b.n	320a <par_save+0x42>
    31ec:	68bb      	ldr	r3, [r7, #8]
    31ee:	1d1a      	adds	r2, r3, #4
    31f0:	60ba      	str	r2, [r7, #8]
    31f2:	681a      	ldr	r2, [r3, #0]
    31f4:	687b      	ldr	r3, [r7, #4]
    31f6:	0011      	movs	r1, r2
    31f8:	0018      	movs	r0, r3
    31fa:	f005 f995 	bl	8528 <__eeprom_program_word_veneer>
    31fe:	687b      	ldr	r3, [r7, #4]
    3200:	3304      	adds	r3, #4
    3202:	607b      	str	r3, [r7, #4]
    3204:	68fb      	ldr	r3, [r7, #12]
    3206:	3301      	adds	r3, #1
    3208:	60fb      	str	r3, [r7, #12]
    320a:	68fa      	ldr	r2, [r7, #12]
    320c:	683b      	ldr	r3, [r7, #0]
    320e:	429a      	cmp	r2, r3
    3210:	dbec      	blt.n	31ec <par_save+0x24>
    3212:	f7ff ff9f 	bl	3154 <eeprom_off>
    3216:	46c0      	nop			; (mov r8, r8)
    3218:	46bd      	mov	sp, r7
    321a:	b004      	add	sp, #16
    321c:	bd80      	pop	{r7, pc}
    321e:	46c0      	nop			; (mov r8, r8)
    3220:	20005b60 	.word	0x20005b60

00003224 <par_verify>:
    3224:	b590      	push	{r4, r7, lr}
    3226:	b087      	sub	sp, #28
    3228:	af00      	add	r7, sp, #0
    322a:	2301      	movs	r3, #1
    322c:	617b      	str	r3, [r7, #20]
    322e:	f7ff ff83 	bl	3138 <eeprom_on>
    3232:	4b13      	ldr	r3, [pc, #76]	; (3280 <par_verify+0x5c>)
    3234:	60fb      	str	r3, [r7, #12]
    3236:	2305      	movs	r3, #5
    3238:	607b      	str	r3, [r7, #4]
    323a:	2300      	movs	r3, #0
    323c:	60bb      	str	r3, [r7, #8]
    323e:	2300      	movs	r3, #0
    3240:	613b      	str	r3, [r7, #16]
    3242:	e012      	b.n	326a <par_verify+0x46>
    3244:	68fb      	ldr	r3, [r7, #12]
    3246:	1d1a      	adds	r2, r3, #4
    3248:	60fa      	str	r2, [r7, #12]
    324a:	681c      	ldr	r4, [r3, #0]
    324c:	68bb      	ldr	r3, [r7, #8]
    324e:	0018      	movs	r0, r3
    3250:	f005 f962 	bl	8518 <__eeprom_read_word_veneer>
    3254:	0003      	movs	r3, r0
    3256:	429c      	cmp	r4, r3
    3258:	d001      	beq.n	325e <par_verify+0x3a>
    325a:	2300      	movs	r3, #0
    325c:	617b      	str	r3, [r7, #20]
    325e:	68bb      	ldr	r3, [r7, #8]
    3260:	3304      	adds	r3, #4
    3262:	60bb      	str	r3, [r7, #8]
    3264:	693b      	ldr	r3, [r7, #16]
    3266:	3301      	adds	r3, #1
    3268:	613b      	str	r3, [r7, #16]
    326a:	693a      	ldr	r2, [r7, #16]
    326c:	687b      	ldr	r3, [r7, #4]
    326e:	429a      	cmp	r2, r3
    3270:	dbe8      	blt.n	3244 <par_verify+0x20>
    3272:	f7ff ff6f 	bl	3154 <eeprom_off>
    3276:	697b      	ldr	r3, [r7, #20]
    3278:	0018      	movs	r0, r3
    327a:	46bd      	mov	sp, r7
    327c:	b007      	add	sp, #28
    327e:	bd90      	pop	{r4, r7, pc}
    3280:	20005b60 	.word	0x20005b60

00003284 <par_read>:
    3284:	b590      	push	{r4, r7, lr}
    3286:	b085      	sub	sp, #20
    3288:	af00      	add	r7, sp, #0
    328a:	f7ff ff55 	bl	3138 <eeprom_on>
    328e:	4b16      	ldr	r3, [pc, #88]	; (32e8 <par_read+0x64>)
    3290:	60bb      	str	r3, [r7, #8]
    3292:	2305      	movs	r3, #5
    3294:	603b      	str	r3, [r7, #0]
    3296:	2300      	movs	r3, #0
    3298:	607b      	str	r3, [r7, #4]
    329a:	2300      	movs	r3, #0
    329c:	60fb      	str	r3, [r7, #12]
    329e:	e00e      	b.n	32be <par_read+0x3a>
    32a0:	68bc      	ldr	r4, [r7, #8]
    32a2:	1d23      	adds	r3, r4, #4
    32a4:	60bb      	str	r3, [r7, #8]
    32a6:	687b      	ldr	r3, [r7, #4]
    32a8:	0018      	movs	r0, r3
    32aa:	f005 f935 	bl	8518 <__eeprom_read_word_veneer>
    32ae:	0003      	movs	r3, r0
    32b0:	6023      	str	r3, [r4, #0]
    32b2:	687b      	ldr	r3, [r7, #4]
    32b4:	3304      	adds	r3, #4
    32b6:	607b      	str	r3, [r7, #4]
    32b8:	68fb      	ldr	r3, [r7, #12]
    32ba:	3301      	adds	r3, #1
    32bc:	60fb      	str	r3, [r7, #12]
    32be:	68fa      	ldr	r2, [r7, #12]
    32c0:	683b      	ldr	r3, [r7, #0]
    32c2:	429a      	cmp	r2, r3
    32c4:	dbec      	blt.n	32a0 <par_read+0x1c>
    32c6:	f7ff ff45 	bl	3154 <eeprom_off>
    32ca:	4b07      	ldr	r3, [pc, #28]	; (32e8 <par_read+0x64>)
    32cc:	2114      	movs	r1, #20
    32ce:	0018      	movs	r0, r3
    32d0:	f7ff fec0 	bl	3054 <crc32>
    32d4:	1e03      	subs	r3, r0, #0
    32d6:	d001      	beq.n	32dc <par_read+0x58>
    32d8:	2300      	movs	r3, #0
    32da:	e000      	b.n	32de <par_read+0x5a>
    32dc:	2301      	movs	r3, #1
    32de:	0018      	movs	r0, r3
    32e0:	46bd      	mov	sp, r7
    32e2:	b005      	add	sp, #20
    32e4:	bd90      	pop	{r4, r7, pc}
    32e6:	46c0      	nop			; (mov r8, r8)
    32e8:	20005b60 	.word	0x20005b60

000032ec <par_update>:
    32ec:	b580      	push	{r7, lr}
    32ee:	b088      	sub	sp, #32
    32f0:	af00      	add	r7, sp, #0
    32f2:	6078      	str	r0, [r7, #4]
    32f4:	687b      	ldr	r3, [r7, #4]
    32f6:	1c5a      	adds	r2, r3, #1
    32f8:	607a      	str	r2, [r7, #4]
    32fa:	781b      	ldrb	r3, [r3, #0]
    32fc:	617b      	str	r3, [r7, #20]
    32fe:	687b      	ldr	r3, [r7, #4]
    3300:	1c5a      	adds	r2, r3, #1
    3302:	607a      	str	r2, [r7, #4]
    3304:	781b      	ldrb	r3, [r3, #0]
    3306:	613b      	str	r3, [r7, #16]
    3308:	687b      	ldr	r3, [r7, #4]
    330a:	1c5a      	adds	r2, r3, #1
    330c:	607a      	str	r2, [r7, #4]
    330e:	781b      	ldrb	r3, [r3, #0]
    3310:	60fb      	str	r3, [r7, #12]
    3312:	687b      	ldr	r3, [r7, #4]
    3314:	1c5a      	adds	r2, r3, #1
    3316:	607a      	str	r2, [r7, #4]
    3318:	781b      	ldrb	r3, [r3, #0]
    331a:	021b      	lsls	r3, r3, #8
    331c:	001a      	movs	r2, r3
    331e:	68fb      	ldr	r3, [r7, #12]
    3320:	189b      	adds	r3, r3, r2
    3322:	60fb      	str	r3, [r7, #12]
    3324:	68fb      	ldr	r3, [r7, #12]
    3326:	2201      	movs	r2, #1
    3328:	4013      	ands	r3, r2
    332a:	60bb      	str	r3, [r7, #8]
    332c:	697a      	ldr	r2, [r7, #20]
    332e:	693b      	ldr	r3, [r7, #16]
    3330:	18d3      	adds	r3, r2, r3
    3332:	2b14      	cmp	r3, #20
    3334:	d82c      	bhi.n	3390 <par_update+0xa4>
    3336:	68bb      	ldr	r3, [r7, #8]
    3338:	2b00      	cmp	r3, #0
    333a:	d126      	bne.n	338a <par_update+0x9e>
    333c:	697a      	ldr	r2, [r7, #20]
    333e:	4b16      	ldr	r3, [pc, #88]	; (3398 <par_update+0xac>)
    3340:	18d3      	adds	r3, r2, r3
    3342:	61bb      	str	r3, [r7, #24]
    3344:	2300      	movs	r3, #0
    3346:	61fb      	str	r3, [r7, #28]
    3348:	e00a      	b.n	3360 <par_update+0x74>
    334a:	69bb      	ldr	r3, [r7, #24]
